
../bootloader/bootloader.elf:     file format elf32-littlearm


Disassembly of section .fw_meta:

08007800 <appMetaData>:
 8007800:	deadbeef 	cdple	14, 10, cr11, cr13, cr15, {7}
 8007804:	beef6969 	vfmslt.f16	s13, s30, s19	@ <UNPREDICTABLE>
 8007808:	ffffffff 			@ <UNDEFINED> instruction: 0xffffffff
 800780c:	ffffffff 			@ <UNDEFINED> instruction: 0xffffffff
 8007810:	ffffffff 			@ <UNDEFINED> instruction: 0xffffffff

Disassembly of section .text:

08000000 <vector_table>:
 8000000:	20004000 	andcs	r4, r0, r0
 8000004:	08002939 	stmdaeq	r0, {r0, r3, r4, r5, r8, fp, sp}
 8000008:	08002935 	stmdaeq	r0, {r0, r2, r4, r5, r8, fp, sp}
 800000c:	08002933 	stmdaeq	r0, {r0, r1, r4, r5, r8, fp, sp}
	...
 800002c:	08002935 	stmdaeq	r0, {r0, r2, r4, r5, r8, fp, sp}
	...
 8000038:	08002935 	stmdaeq	r0, {r0, r2, r4, r5, r8, fp, sp}
 800003c:	08001905 	stmdaeq	r0, {r0, r2, r8, fp, ip}
 8000040:	08002933 	stmdaeq	r0, {r0, r1, r4, r5, r8, fp, sp}
 8000044:	08002933 	stmdaeq	r0, {r0, r1, r4, r5, r8, fp, sp}
 8000048:	08002933 	stmdaeq	r0, {r0, r1, r4, r5, r8, fp, sp}
 800004c:	08002933 	stmdaeq	r0, {r0, r1, r4, r5, r8, fp, sp}
 8000050:	08002933 	stmdaeq	r0, {r0, r1, r4, r5, r8, fp, sp}
 8000054:	08002933 	stmdaeq	r0, {r0, r1, r4, r5, r8, fp, sp}
 8000058:	08002933 	stmdaeq	r0, {r0, r1, r4, r5, r8, fp, sp}
 800005c:	08002933 	stmdaeq	r0, {r0, r1, r4, r5, r8, fp, sp}
 8000060:	08002933 	stmdaeq	r0, {r0, r1, r4, r5, r8, fp, sp}
 8000064:	08002933 	stmdaeq	r0, {r0, r1, r4, r5, r8, fp, sp}
 8000068:	08002933 	stmdaeq	r0, {r0, r1, r4, r5, r8, fp, sp}
 800006c:	08002933 	stmdaeq	r0, {r0, r1, r4, r5, r8, fp, sp}
 8000070:	08002933 	stmdaeq	r0, {r0, r1, r4, r5, r8, fp, sp}
 8000074:	08002933 	stmdaeq	r0, {r0, r1, r4, r5, r8, fp, sp}
 8000078:	08002933 	stmdaeq	r0, {r0, r1, r4, r5, r8, fp, sp}
 800007c:	08002933 	stmdaeq	r0, {r0, r1, r4, r5, r8, fp, sp}
 8000080:	08002933 	stmdaeq	r0, {r0, r1, r4, r5, r8, fp, sp}
 8000084:	08002933 	stmdaeq	r0, {r0, r1, r4, r5, r8, fp, sp}
 8000088:	08002933 	stmdaeq	r0, {r0, r1, r4, r5, r8, fp, sp}
 800008c:	08002933 	stmdaeq	r0, {r0, r1, r4, r5, r8, fp, sp}
 8000090:	08002933 	stmdaeq	r0, {r0, r1, r4, r5, r8, fp, sp}
 8000094:	08002933 	stmdaeq	r0, {r0, r1, r4, r5, r8, fp, sp}
 8000098:	08002933 	stmdaeq	r0, {r0, r1, r4, r5, r8, fp, sp}
 800009c:	08002933 	stmdaeq	r0, {r0, r1, r4, r5, r8, fp, sp}
 80000a0:	08002933 	stmdaeq	r0, {r0, r1, r4, r5, r8, fp, sp}
 80000a4:	08002933 	stmdaeq	r0, {r0, r1, r4, r5, r8, fp, sp}
 80000a8:	08002933 	stmdaeq	r0, {r0, r1, r4, r5, r8, fp, sp}
 80000ac:	08002933 	stmdaeq	r0, {r0, r1, r4, r5, r8, fp, sp}
 80000b0:	08002933 	stmdaeq	r0, {r0, r1, r4, r5, r8, fp, sp}
 80000b4:	08002933 	stmdaeq	r0, {r0, r1, r4, r5, r8, fp, sp}
 80000b8:	08001bc5 	stmdaeq	r0, {r0, r2, r6, r7, r8, r9, fp, ip}
 80000bc:	08002933 	stmdaeq	r0, {r0, r1, r4, r5, r8, fp, sp}

080000c0 <_out_null>:
 80000c0:	4770      	bx	lr

080000c2 <_out_rev>:
 80000c2:	b5f0      	push	{r4, r5, r6, r7, lr}
 80000c4:	b085      	sub	sp, #20
 80000c6:	9302      	str	r3, [sp, #8]
 80000c8:	9b0d      	ldr	r3, [sp, #52]	@ 0x34
 80000ca:	0007      	movs	r7, r0
 80000cc:	0014      	movs	r4, r2
 80000ce:	9e0b      	ldr	r6, [sp, #44]	@ 0x2c
 80000d0:	9101      	str	r1, [sp, #4]
 80000d2:	079b      	lsls	r3, r3, #30
 80000d4:	d01e      	beq.n	8000114 <_out_rev+0x52>
 80000d6:	9203      	str	r2, [sp, #12]
 80000d8:	0035      	movs	r5, r6
 80000da:	9b03      	ldr	r3, [sp, #12]
 80000dc:	18f0      	adds	r0, r6, r3
 80000de:	1b42      	subs	r2, r0, r5
 80000e0:	2d00      	cmp	r5, #0
 80000e2:	d119      	bne.n	8000118 <_out_rev+0x56>
 80000e4:	9b0d      	ldr	r3, [sp, #52]	@ 0x34
 80000e6:	1b05      	subs	r5, r0, r4
 80000e8:	079b      	lsls	r3, r3, #30
 80000ea:	d422      	bmi.n	8000132 <_out_rev+0x70>
 80000ec:	b005      	add	sp, #20
 80000ee:	bdf0      	pop	{r4, r5, r6, r7, pc}
 80000f0:	2020      	movs	r0, #32
 80000f2:	9b02      	ldr	r3, [sp, #8]
 80000f4:	9901      	ldr	r1, [sp, #4]
 80000f6:	47b8      	blx	r7
 80000f8:	3501      	adds	r5, #1
 80000fa:	9b0c      	ldr	r3, [sp, #48]	@ 0x30
 80000fc:	1ba2      	subs	r2, r4, r6
 80000fe:	18aa      	adds	r2, r5, r2
 8000100:	429d      	cmp	r5, r3
 8000102:	d3f5      	bcc.n	80000f0 <_out_rev+0x2e>
 8000104:	9a0c      	ldr	r2, [sp, #48]	@ 0x30
 8000106:	2300      	movs	r3, #0
 8000108:	4296      	cmp	r6, r2
 800010a:	d800      	bhi.n	800010e <_out_rev+0x4c>
 800010c:	1b93      	subs	r3, r2, r6
 800010e:	191b      	adds	r3, r3, r4
 8000110:	9303      	str	r3, [sp, #12]
 8000112:	e7e1      	b.n	80000d8 <_out_rev+0x16>
 8000114:	0035      	movs	r5, r6
 8000116:	e7f0      	b.n	80000fa <_out_rev+0x38>
 8000118:	9b0a      	ldr	r3, [sp, #40]	@ 0x28
 800011a:	3d01      	subs	r5, #1
 800011c:	5d58      	ldrb	r0, [r3, r5]
 800011e:	9901      	ldr	r1, [sp, #4]
 8000120:	9b02      	ldr	r3, [sp, #8]
 8000122:	47b8      	blx	r7
 8000124:	e7d9      	b.n	80000da <_out_rev+0x18>
 8000126:	0002      	movs	r2, r0
 8000128:	9b02      	ldr	r3, [sp, #8]
 800012a:	2020      	movs	r0, #32
 800012c:	9901      	ldr	r1, [sp, #4]
 800012e:	47b8      	blx	r7
 8000130:	3501      	adds	r5, #1
 8000132:	9b0c      	ldr	r3, [sp, #48]	@ 0x30
 8000134:	1960      	adds	r0, r4, r5
 8000136:	42ab      	cmp	r3, r5
 8000138:	d8f5      	bhi.n	8000126 <_out_rev+0x64>
 800013a:	e7d7      	b.n	80000ec <_out_rev+0x2a>

0800013c <_ntoa_format>:
 800013c:	b5f0      	push	{r4, r5, r6, r7, lr}
 800013e:	b089      	sub	sp, #36	@ 0x24
 8000140:	9105      	str	r1, [sp, #20]
 8000142:	a910      	add	r1, sp, #64	@ 0x40
 8000144:	780e      	ldrb	r6, [r1, #0]
 8000146:	9914      	ldr	r1, [sp, #80]	@ 0x50
 8000148:	9004      	str	r0, [sp, #16]
 800014a:	9206      	str	r2, [sp, #24]
 800014c:	9307      	str	r3, [sp, #28]
 800014e:	9a0e      	ldr	r2, [sp, #56]	@ 0x38
 8000150:	9b0f      	ldr	r3, [sp, #60]	@ 0x3c
 8000152:	9811      	ldr	r0, [sp, #68]	@ 0x44
 8000154:	9c13      	ldr	r4, [sp, #76]	@ 0x4c
 8000156:	078d      	lsls	r5, r1, #30
 8000158:	d41a      	bmi.n	8000190 <_ntoa_format+0x54>
 800015a:	2501      	movs	r5, #1
 800015c:	400d      	ands	r5, r1
 800015e:	2c00      	cmp	r4, #0
 8000160:	d007      	beq.n	8000172 <_ntoa_format+0x36>
 8000162:	2d00      	cmp	r5, #0
 8000164:	d005      	beq.n	8000172 <_ntoa_format+0x36>
 8000166:	2e00      	cmp	r6, #0
 8000168:	d102      	bne.n	8000170 <_ntoa_format+0x34>
 800016a:	270c      	movs	r7, #12
 800016c:	4239      	tst	r1, r7
 800016e:	d000      	beq.n	8000172 <_ntoa_format+0x36>
 8000170:	3c01      	subs	r4, #1
 8000172:	2730      	movs	r7, #48	@ 0x30
 8000174:	46bc      	mov	ip, r7
 8000176:	e002      	b.n	800017e <_ntoa_format+0x42>
 8000178:	4667      	mov	r7, ip
 800017a:	54d7      	strb	r7, [r2, r3]
 800017c:	3301      	adds	r3, #1
 800017e:	9f12      	ldr	r7, [sp, #72]	@ 0x48
 8000180:	429f      	cmp	r7, r3
 8000182:	d901      	bls.n	8000188 <_ntoa_format+0x4c>
 8000184:	2b20      	cmp	r3, #32
 8000186:	d1f7      	bne.n	8000178 <_ntoa_format+0x3c>
 8000188:	2730      	movs	r7, #48	@ 0x30
 800018a:	46bc      	mov	ip, r7
 800018c:	2d00      	cmp	r5, #0
 800018e:	d11d      	bne.n	80001cc <_ntoa_format+0x90>
 8000190:	06cd      	lsls	r5, r1, #27
 8000192:	d515      	bpl.n	80001c0 <_ntoa_format+0x84>
 8000194:	054d      	lsls	r5, r1, #21
 8000196:	d438      	bmi.n	800020a <_ntoa_format+0xce>
 8000198:	2b00      	cmp	r3, #0
 800019a:	d01c      	beq.n	80001d6 <_ntoa_format+0x9a>
 800019c:	9d12      	ldr	r5, [sp, #72]	@ 0x48
 800019e:	42ab      	cmp	r3, r5
 80001a0:	d001      	beq.n	80001a6 <_ntoa_format+0x6a>
 80001a2:	42a3      	cmp	r3, r4
 80001a4:	d131      	bne.n	800020a <_ntoa_format+0xce>
 80001a6:	1e5d      	subs	r5, r3, #1
 80001a8:	2b01      	cmp	r3, #1
 80001aa:	d014      	beq.n	80001d6 <_ntoa_format+0x9a>
 80001ac:	2810      	cmp	r0, #16
 80001ae:	d138      	bne.n	8000222 <_ntoa_format+0xe6>
 80001b0:	3b02      	subs	r3, #2
 80001b2:	0688      	lsls	r0, r1, #26
 80001b4:	d455      	bmi.n	8000262 <_ntoa_format+0x126>
 80001b6:	2078      	movs	r0, #120	@ 0x78
 80001b8:	54d0      	strb	r0, [r2, r3]
 80001ba:	2030      	movs	r0, #48	@ 0x30
 80001bc:	1c6b      	adds	r3, r5, #1
 80001be:	5550      	strb	r0, [r2, r5]
 80001c0:	2b20      	cmp	r3, #32
 80001c2:	d03b      	beq.n	800023c <_ntoa_format+0x100>
 80001c4:	e010      	b.n	80001e8 <_ntoa_format+0xac>
 80001c6:	4665      	mov	r5, ip
 80001c8:	54d5      	strb	r5, [r2, r3]
 80001ca:	3301      	adds	r3, #1
 80001cc:	429c      	cmp	r4, r3
 80001ce:	d9df      	bls.n	8000190 <_ntoa_format+0x54>
 80001d0:	2b20      	cmp	r3, #32
 80001d2:	d1f8      	bne.n	80001c6 <_ntoa_format+0x8a>
 80001d4:	e7dc      	b.n	8000190 <_ntoa_format+0x54>
 80001d6:	2810      	cmp	r0, #16
 80001d8:	d111      	bne.n	80001fe <_ntoa_format+0xc2>
 80001da:	068b      	lsls	r3, r1, #26
 80001dc:	d427      	bmi.n	800022e <_ntoa_format+0xf2>
 80001de:	2378      	movs	r3, #120	@ 0x78
 80001e0:	7013      	strb	r3, [r2, #0]
 80001e2:	2330      	movs	r3, #48	@ 0x30
 80001e4:	7053      	strb	r3, [r2, #1]
 80001e6:	3b2e      	subs	r3, #46	@ 0x2e
 80001e8:	202d      	movs	r0, #45	@ 0x2d
 80001ea:	2e00      	cmp	r6, #0
 80001ec:	d102      	bne.n	80001f4 <_ntoa_format+0xb8>
 80001ee:	0748      	lsls	r0, r1, #29
 80001f0:	d531      	bpl.n	8000256 <_ntoa_format+0x11a>
 80001f2:	202b      	movs	r0, #43	@ 0x2b
 80001f4:	54d0      	strb	r0, [r2, r3]
 80001f6:	3301      	adds	r3, #1
 80001f8:	e021      	b.n	800023e <_ntoa_format+0x102>
 80001fa:	2362      	movs	r3, #98	@ 0x62
 80001fc:	e7f0      	b.n	80001e0 <_ntoa_format+0xa4>
 80001fe:	2802      	cmp	r0, #2
 8000200:	d0fb      	beq.n	80001fa <_ntoa_format+0xbe>
 8000202:	2330      	movs	r3, #48	@ 0x30
 8000204:	7013      	strb	r3, [r2, #0]
 8000206:	3b2f      	subs	r3, #47	@ 0x2f
 8000208:	e7ee      	b.n	80001e8 <_ntoa_format+0xac>
 800020a:	2810      	cmp	r0, #16
 800020c:	d111      	bne.n	8000232 <_ntoa_format+0xf6>
 800020e:	0688      	lsls	r0, r1, #26
 8000210:	d425      	bmi.n	800025e <_ntoa_format+0x122>
 8000212:	2b20      	cmp	r3, #32
 8000214:	d012      	beq.n	800023c <_ntoa_format+0x100>
 8000216:	2078      	movs	r0, #120	@ 0x78
 8000218:	1c5d      	adds	r5, r3, #1
 800021a:	54d0      	strb	r0, [r2, r3]
 800021c:	2d20      	cmp	r5, #32
 800021e:	d00d      	beq.n	800023c <_ntoa_format+0x100>
 8000220:	e7cb      	b.n	80001ba <_ntoa_format+0x7e>
 8000222:	2802      	cmp	r0, #2
 8000224:	d1c9      	bne.n	80001ba <_ntoa_format+0x7e>
 8000226:	2362      	movs	r3, #98	@ 0x62
 8000228:	5553      	strb	r3, [r2, r5]
 800022a:	3501      	adds	r5, #1
 800022c:	e7f6      	b.n	800021c <_ntoa_format+0xe0>
 800022e:	2358      	movs	r3, #88	@ 0x58
 8000230:	e7d6      	b.n	80001e0 <_ntoa_format+0xa4>
 8000232:	001d      	movs	r5, r3
 8000234:	2802      	cmp	r0, #2
 8000236:	d1f1      	bne.n	800021c <_ntoa_format+0xe0>
 8000238:	2b20      	cmp	r3, #32
 800023a:	d1f4      	bne.n	8000226 <_ntoa_format+0xea>
 800023c:	2320      	movs	r3, #32
 800023e:	9103      	str	r1, [sp, #12]
 8000240:	9301      	str	r3, [sp, #4]
 8000242:	9200      	str	r2, [sp, #0]
 8000244:	9b07      	ldr	r3, [sp, #28]
 8000246:	9a06      	ldr	r2, [sp, #24]
 8000248:	9905      	ldr	r1, [sp, #20]
 800024a:	9804      	ldr	r0, [sp, #16]
 800024c:	9402      	str	r4, [sp, #8]
 800024e:	f7ff ff38 	bl	80000c2 <_out_rev>
 8000252:	b009      	add	sp, #36	@ 0x24
 8000254:	bdf0      	pop	{r4, r5, r6, r7, pc}
 8000256:	0708      	lsls	r0, r1, #28
 8000258:	d5f1      	bpl.n	800023e <_ntoa_format+0x102>
 800025a:	2020      	movs	r0, #32
 800025c:	e7ca      	b.n	80001f4 <_ntoa_format+0xb8>
 800025e:	2b20      	cmp	r3, #32
 8000260:	d0ec      	beq.n	800023c <_ntoa_format+0x100>
 8000262:	2058      	movs	r0, #88	@ 0x58
 8000264:	1c5d      	adds	r5, r3, #1
 8000266:	e7d8      	b.n	800021a <_ntoa_format+0xde>

08000268 <_ntoa_long>:
 8000268:	b5f0      	push	{r4, r5, r6, r7, lr}
 800026a:	b097      	sub	sp, #92	@ 0x5c
 800026c:	920b      	str	r2, [sp, #44]	@ 0x2c
 800026e:	aa1c      	add	r2, sp, #112	@ 0x70
 8000270:	930c      	str	r3, [sp, #48]	@ 0x30
 8000272:	ca08      	ldmia	r2!, {r3}
 8000274:	9c21      	ldr	r4, [sp, #132]	@ 0x84
 8000276:	7815      	ldrb	r5, [r2, #0]
 8000278:	9009      	str	r0, [sp, #36]	@ 0x24
 800027a:	910a      	str	r1, [sp, #40]	@ 0x28
 800027c:	2b00      	cmp	r3, #0
 800027e:	d106      	bne.n	800028e <_ntoa_long+0x26>
 8000280:	2280      	movs	r2, #128	@ 0x80
 8000282:	2110      	movs	r1, #16
 8000284:	00d2      	lsls	r2, r2, #3
 8000286:	4022      	ands	r2, r4
 8000288:	438c      	bics	r4, r1
 800028a:	2a00      	cmp	r2, #0
 800028c:	d11f      	bne.n	80002ce <_ntoa_long+0x66>
 800028e:	2261      	movs	r2, #97	@ 0x61
 8000290:	06a1      	lsls	r1, r4, #26
 8000292:	d500      	bpl.n	8000296 <_ntoa_long+0x2e>
 8000294:	2241      	movs	r2, #65	@ 0x41
 8000296:	001e      	movs	r6, r3
 8000298:	2700      	movs	r7, #0
 800029a:	b2d2      	uxtb	r2, r2
 800029c:	3a0a      	subs	r2, #10
 800029e:	920d      	str	r2, [sp, #52]	@ 0x34
 80002a0:	0030      	movs	r0, r6
 80002a2:	991e      	ldr	r1, [sp, #120]	@ 0x78
 80002a4:	f002 fd2e 	bl	8002d04 <__aeabi_uidivmod>
 80002a8:	9a0d      	ldr	r2, [sp, #52]	@ 0x34
 80002aa:	b2cb      	uxtb	r3, r1
 80002ac:	189a      	adds	r2, r3, r2
 80002ae:	4684      	mov	ip, r0
 80002b0:	b2d2      	uxtb	r2, r2
 80002b2:	2909      	cmp	r1, #9
 80002b4:	d801      	bhi.n	80002ba <_ntoa_long+0x52>
 80002b6:	3330      	adds	r3, #48	@ 0x30
 80002b8:	b2da      	uxtb	r2, r3
 80002ba:	2020      	movs	r0, #32
 80002bc:	a906      	add	r1, sp, #24
 80002be:	1809      	adds	r1, r1, r0
 80002c0:	55ca      	strb	r2, [r1, r7]
 80002c2:	9a1e      	ldr	r2, [sp, #120]	@ 0x78
 80002c4:	1c7b      	adds	r3, r7, #1
 80002c6:	4296      	cmp	r6, r2
 80002c8:	d301      	bcc.n	80002ce <_ntoa_long+0x66>
 80002ca:	4283      	cmp	r3, r0
 80002cc:	d112      	bne.n	80002f4 <_ntoa_long+0x8c>
 80002ce:	9a20      	ldr	r2, [sp, #128]	@ 0x80
 80002d0:	9301      	str	r3, [sp, #4]
 80002d2:	9205      	str	r2, [sp, #20]
 80002d4:	9a1f      	ldr	r2, [sp, #124]	@ 0x7c
 80002d6:	ab0e      	add	r3, sp, #56	@ 0x38
 80002d8:	9204      	str	r2, [sp, #16]
 80002da:	9a1e      	ldr	r2, [sp, #120]	@ 0x78
 80002dc:	9300      	str	r3, [sp, #0]
 80002de:	9203      	str	r2, [sp, #12]
 80002e0:	9b0c      	ldr	r3, [sp, #48]	@ 0x30
 80002e2:	9a0b      	ldr	r2, [sp, #44]	@ 0x2c
 80002e4:	990a      	ldr	r1, [sp, #40]	@ 0x28
 80002e6:	9809      	ldr	r0, [sp, #36]	@ 0x24
 80002e8:	9406      	str	r4, [sp, #24]
 80002ea:	9502      	str	r5, [sp, #8]
 80002ec:	f7ff ff26 	bl	800013c <_ntoa_format>
 80002f0:	b017      	add	sp, #92	@ 0x5c
 80002f2:	bdf0      	pop	{r4, r5, r6, r7, pc}
 80002f4:	001f      	movs	r7, r3
 80002f6:	4666      	mov	r6, ip
 80002f8:	e7d2      	b.n	80002a0 <_ntoa_long+0x38>

080002fa <_ntoa_long_long>:
 80002fa:	b5f0      	push	{r4, r5, r6, r7, lr}
 80002fc:	b09b      	sub	sp, #108	@ 0x6c
 80002fe:	930e      	str	r3, [sp, #56]	@ 0x38
 8000300:	ab22      	add	r3, sp, #136	@ 0x88
 8000302:	781b      	ldrb	r3, [r3, #0]
 8000304:	9e20      	ldr	r6, [sp, #128]	@ 0x80
 8000306:	930f      	str	r3, [sp, #60]	@ 0x3c
 8000308:	9b24      	ldr	r3, [sp, #144]	@ 0x90
 800030a:	9d21      	ldr	r5, [sp, #132]	@ 0x84
 800030c:	9309      	str	r3, [sp, #36]	@ 0x24
 800030e:	9b25      	ldr	r3, [sp, #148]	@ 0x94
 8000310:	9c28      	ldr	r4, [sp, #160]	@ 0xa0
 8000312:	930a      	str	r3, [sp, #40]	@ 0x28
 8000314:	0033      	movs	r3, r6
 8000316:	900b      	str	r0, [sp, #44]	@ 0x2c
 8000318:	910c      	str	r1, [sp, #48]	@ 0x30
 800031a:	920d      	str	r2, [sp, #52]	@ 0x34
 800031c:	432b      	orrs	r3, r5
 800031e:	d105      	bne.n	800032c <_ntoa_long_long+0x32>
 8000320:	2210      	movs	r2, #16
 8000322:	0021      	movs	r1, r4
 8000324:	4391      	bics	r1, r2
 8000326:	0564      	lsls	r4, r4, #21
 8000328:	d440      	bmi.n	80003ac <_ntoa_long_long+0xb2>
 800032a:	000c      	movs	r4, r1
 800032c:	2361      	movs	r3, #97	@ 0x61
 800032e:	06a2      	lsls	r2, r4, #26
 8000330:	d500      	bpl.n	8000334 <_ntoa_long_long+0x3a>
 8000332:	2341      	movs	r3, #65	@ 0x41
 8000334:	2700      	movs	r7, #0
 8000336:	b2db      	uxtb	r3, r3
 8000338:	3b0a      	subs	r3, #10
 800033a:	9310      	str	r3, [sp, #64]	@ 0x40
 800033c:	0030      	movs	r0, r6
 800033e:	0029      	movs	r1, r5
 8000340:	9a09      	ldr	r2, [sp, #36]	@ 0x24
 8000342:	9b0a      	ldr	r3, [sp, #40]	@ 0x28
 8000344:	f002 fe0c 	bl	8002f60 <__aeabi_uldivmod>
 8000348:	9b10      	ldr	r3, [sp, #64]	@ 0x40
 800034a:	b2d2      	uxtb	r2, r2
 800034c:	18d3      	adds	r3, r2, r3
 800034e:	b2db      	uxtb	r3, r3
 8000350:	469c      	mov	ip, r3
 8000352:	9111      	str	r1, [sp, #68]	@ 0x44
 8000354:	2a09      	cmp	r2, #9
 8000356:	d802      	bhi.n	800035e <_ntoa_long_long+0x64>
 8000358:	3230      	adds	r2, #48	@ 0x30
 800035a:	b2d3      	uxtb	r3, r2
 800035c:	469c      	mov	ip, r3
 800035e:	2120      	movs	r1, #32
 8000360:	aa0a      	add	r2, sp, #40	@ 0x28
 8000362:	1852      	adds	r2, r2, r1
 8000364:	4661      	mov	r1, ip
 8000366:	55d1      	strb	r1, [r2, r7]
 8000368:	9a0a      	ldr	r2, [sp, #40]	@ 0x28
 800036a:	1c7b      	adds	r3, r7, #1
 800036c:	42aa      	cmp	r2, r5
 800036e:	d805      	bhi.n	800037c <_ntoa_long_long+0x82>
 8000370:	d102      	bne.n	8000378 <_ntoa_long_long+0x7e>
 8000372:	9a09      	ldr	r2, [sp, #36]	@ 0x24
 8000374:	42b2      	cmp	r2, r6
 8000376:	d801      	bhi.n	800037c <_ntoa_long_long+0x82>
 8000378:	2b20      	cmp	r3, #32
 800037a:	d113      	bne.n	80003a4 <_ntoa_long_long+0xaa>
 800037c:	9a27      	ldr	r2, [sp, #156]	@ 0x9c
 800037e:	9301      	str	r3, [sp, #4]
 8000380:	9205      	str	r2, [sp, #20]
 8000382:	9a26      	ldr	r2, [sp, #152]	@ 0x98
 8000384:	ab12      	add	r3, sp, #72	@ 0x48
 8000386:	9204      	str	r2, [sp, #16]
 8000388:	9a09      	ldr	r2, [sp, #36]	@ 0x24
 800038a:	9300      	str	r3, [sp, #0]
 800038c:	9203      	str	r2, [sp, #12]
 800038e:	9a0f      	ldr	r2, [sp, #60]	@ 0x3c
 8000390:	9b0e      	ldr	r3, [sp, #56]	@ 0x38
 8000392:	9202      	str	r2, [sp, #8]
 8000394:	990c      	ldr	r1, [sp, #48]	@ 0x30
 8000396:	9a0d      	ldr	r2, [sp, #52]	@ 0x34
 8000398:	980b      	ldr	r0, [sp, #44]	@ 0x2c
 800039a:	9406      	str	r4, [sp, #24]
 800039c:	f7ff fece 	bl	800013c <_ntoa_format>
 80003a0:	b01b      	add	sp, #108	@ 0x6c
 80003a2:	bdf0      	pop	{r4, r5, r6, r7, pc}
 80003a4:	001f      	movs	r7, r3
 80003a6:	0006      	movs	r6, r0
 80003a8:	9d11      	ldr	r5, [sp, #68]	@ 0x44
 80003aa:	e7c7      	b.n	800033c <_ntoa_long_long+0x42>
 80003ac:	000c      	movs	r4, r1
 80003ae:	e7e5      	b.n	800037c <_ntoa_long_long+0x82>

080003b0 <_etoa>:
 80003b0:	b5f0      	push	{r4, r5, r6, r7, lr}
 80003b2:	b093      	sub	sp, #76	@ 0x4c
 80003b4:	9009      	str	r0, [sp, #36]	@ 0x24
 80003b6:	910a      	str	r1, [sp, #40]	@ 0x28
 80003b8:	920e      	str	r2, [sp, #56]	@ 0x38
 80003ba:	930b      	str	r3, [sp, #44]	@ 0x2c
 80003bc:	9a18      	ldr	r2, [sp, #96]	@ 0x60
 80003be:	9b19      	ldr	r3, [sp, #100]	@ 0x64
 80003c0:	0010      	movs	r0, r2
 80003c2:	0019      	movs	r1, r3
 80003c4:	f002 fd9e 	bl	8002f04 <__aeabi_dcmpeq>
 80003c8:	2800      	cmp	r0, #0
 80003ca:	d011      	beq.n	80003f0 <_etoa+0x40>
 80003cc:	9818      	ldr	r0, [sp, #96]	@ 0x60
 80003ce:	9919      	ldr	r1, [sp, #100]	@ 0x64
 80003d0:	2201      	movs	r2, #1
 80003d2:	4bcc      	ldr	r3, [pc, #816]	@ (8000704 <_etoa+0x354>)
 80003d4:	4252      	negs	r2, r2
 80003d6:	f002 fdaf 	bl	8002f38 <__aeabi_dcmpgt>
 80003da:	2800      	cmp	r0, #0
 80003dc:	d108      	bne.n	80003f0 <_etoa+0x40>
 80003de:	9818      	ldr	r0, [sp, #96]	@ 0x60
 80003e0:	9919      	ldr	r1, [sp, #100]	@ 0x64
 80003e2:	2201      	movs	r2, #1
 80003e4:	4bc8      	ldr	r3, [pc, #800]	@ (8000708 <_etoa+0x358>)
 80003e6:	4252      	negs	r2, r2
 80003e8:	f002 fd92 	bl	8002f10 <__aeabi_dcmplt>
 80003ec:	2800      	cmp	r0, #0
 80003ee:	d013      	beq.n	8000418 <_etoa+0x68>
 80003f0:	9b1c      	ldr	r3, [sp, #112]	@ 0x70
 80003f2:	9a0e      	ldr	r2, [sp, #56]	@ 0x38
 80003f4:	9304      	str	r3, [sp, #16]
 80003f6:	9b1b      	ldr	r3, [sp, #108]	@ 0x6c
 80003f8:	990a      	ldr	r1, [sp, #40]	@ 0x28
 80003fa:	9303      	str	r3, [sp, #12]
 80003fc:	9b1a      	ldr	r3, [sp, #104]	@ 0x68
 80003fe:	9809      	ldr	r0, [sp, #36]	@ 0x24
 8000400:	9302      	str	r3, [sp, #8]
 8000402:	9b18      	ldr	r3, [sp, #96]	@ 0x60
 8000404:	9c19      	ldr	r4, [sp, #100]	@ 0x64
 8000406:	9300      	str	r3, [sp, #0]
 8000408:	9401      	str	r4, [sp, #4]
 800040a:	9b0b      	ldr	r3, [sp, #44]	@ 0x2c
 800040c:	f000 f9ae 	bl	800076c <_ftoa>
 8000410:	0002      	movs	r2, r0
 8000412:	0010      	movs	r0, r2
 8000414:	b013      	add	sp, #76	@ 0x4c
 8000416:	bdf0      	pop	{r4, r5, r6, r7, pc}
 8000418:	2200      	movs	r2, #0
 800041a:	9818      	ldr	r0, [sp, #96]	@ 0x60
 800041c:	9919      	ldr	r1, [sp, #100]	@ 0x64
 800041e:	2300      	movs	r3, #0
 8000420:	f002 fd76 	bl	8002f10 <__aeabi_dcmplt>
 8000424:	2800      	cmp	r0, #0
 8000426:	d100      	bne.n	800042a <_etoa+0x7a>
 8000428:	e14f      	b.n	80006ca <_etoa+0x31a>
 800042a:	2280      	movs	r2, #128	@ 0x80
 800042c:	0612      	lsls	r2, r2, #24
 800042e:	4694      	mov	ip, r2
 8000430:	9b18      	ldr	r3, [sp, #96]	@ 0x60
 8000432:	9306      	str	r3, [sp, #24]
 8000434:	9b19      	ldr	r3, [sp, #100]	@ 0x64
 8000436:	4463      	add	r3, ip
 8000438:	9307      	str	r3, [sp, #28]
 800043a:	2380      	movs	r3, #128	@ 0x80
 800043c:	9a1c      	ldr	r2, [sp, #112]	@ 0x70
 800043e:	00db      	lsls	r3, r3, #3
 8000440:	401a      	ands	r2, r3
 8000442:	920f      	str	r2, [sp, #60]	@ 0x3c
 8000444:	9a1c      	ldr	r2, [sp, #112]	@ 0x70
 8000446:	421a      	tst	r2, r3
 8000448:	d101      	bne.n	800044e <_etoa+0x9e>
 800044a:	2306      	movs	r3, #6
 800044c:	931a      	str	r3, [sp, #104]	@ 0x68
 800044e:	9b07      	ldr	r3, [sp, #28]
 8000450:	9e06      	ldr	r6, [sp, #24]
 8000452:	0058      	lsls	r0, r3, #1
 8000454:	4bad      	ldr	r3, [pc, #692]	@ (800070c <_etoa+0x35c>)
 8000456:	0d40      	lsrs	r0, r0, #21
 8000458:	18c0      	adds	r0, r0, r3
 800045a:	f004 fcd3 	bl	8004e04 <__aeabi_i2d>
 800045e:	4aac      	ldr	r2, [pc, #688]	@ (8000710 <_etoa+0x360>)
 8000460:	4bac      	ldr	r3, [pc, #688]	@ (8000714 <_etoa+0x364>)
 8000462:	f003 fe2f 	bl	80040c4 <__aeabi_dmul>
 8000466:	4aac      	ldr	r2, [pc, #688]	@ (8000718 <_etoa+0x368>)
 8000468:	4bac      	ldr	r3, [pc, #688]	@ (800071c <_etoa+0x36c>)
 800046a:	f002 fe83 	bl	8003174 <__aeabi_dadd>
 800046e:	9b07      	ldr	r3, [sp, #28]
 8000470:	4aab      	ldr	r2, [pc, #684]	@ (8000720 <_etoa+0x370>)
 8000472:	031b      	lsls	r3, r3, #12
 8000474:	0b1b      	lsrs	r3, r3, #12
 8000476:	431a      	orrs	r2, r3
 8000478:	0004      	movs	r4, r0
 800047a:	000d      	movs	r5, r1
 800047c:	0030      	movs	r0, r6
 800047e:	0011      	movs	r1, r2
 8000480:	4ba8      	ldr	r3, [pc, #672]	@ (8000724 <_etoa+0x374>)
 8000482:	2200      	movs	r2, #0
 8000484:	f004 f8e6 	bl	8004654 <__aeabi_dsub>
 8000488:	4aa7      	ldr	r2, [pc, #668]	@ (8000728 <_etoa+0x378>)
 800048a:	4ba8      	ldr	r3, [pc, #672]	@ (800072c <_etoa+0x37c>)
 800048c:	f003 fe1a 	bl	80040c4 <__aeabi_dmul>
 8000490:	0002      	movs	r2, r0
 8000492:	000b      	movs	r3, r1
 8000494:	0020      	movs	r0, r4
 8000496:	0029      	movs	r1, r5
 8000498:	f002 fe6c 	bl	8003174 <__aeabi_dadd>
 800049c:	f004 fc76 	bl	8004d8c <__aeabi_d2iz>
 80004a0:	0005      	movs	r5, r0
 80004a2:	f004 fcaf 	bl	8004e04 <__aeabi_i2d>
 80004a6:	4aa2      	ldr	r2, [pc, #648]	@ (8000730 <_etoa+0x380>)
 80004a8:	4ba2      	ldr	r3, [pc, #648]	@ (8000734 <_etoa+0x384>)
 80004aa:	0006      	movs	r6, r0
 80004ac:	000f      	movs	r7, r1
 80004ae:	f003 fe09 	bl	80040c4 <__aeabi_dmul>
 80004b2:	2200      	movs	r2, #0
 80004b4:	4ba0      	ldr	r3, [pc, #640]	@ (8000738 <_etoa+0x388>)
 80004b6:	f002 fe5d 	bl	8003174 <__aeabi_dadd>
 80004ba:	f004 fc67 	bl	8004d8c <__aeabi_d2iz>
 80004be:	4a9f      	ldr	r2, [pc, #636]	@ (800073c <_etoa+0x38c>)
 80004c0:	0004      	movs	r4, r0
 80004c2:	4b9f      	ldr	r3, [pc, #636]	@ (8000740 <_etoa+0x390>)
 80004c4:	0030      	movs	r0, r6
 80004c6:	0039      	movs	r1, r7
 80004c8:	f003 fdfc 	bl	80040c4 <__aeabi_dmul>
 80004cc:	0006      	movs	r6, r0
 80004ce:	0020      	movs	r0, r4
 80004d0:	000f      	movs	r7, r1
 80004d2:	f004 fc97 	bl	8004e04 <__aeabi_i2d>
 80004d6:	4a9b      	ldr	r2, [pc, #620]	@ (8000744 <_etoa+0x394>)
 80004d8:	4b9b      	ldr	r3, [pc, #620]	@ (8000748 <_etoa+0x398>)
 80004da:	f003 fdf3 	bl	80040c4 <__aeabi_dmul>
 80004de:	0002      	movs	r2, r0
 80004e0:	000b      	movs	r3, r1
 80004e2:	0030      	movs	r0, r6
 80004e4:	0039      	movs	r1, r7
 80004e6:	f004 f8b5 	bl	8004654 <__aeabi_dsub>
 80004ea:	0002      	movs	r2, r0
 80004ec:	000b      	movs	r3, r1
 80004ee:	900c      	str	r0, [sp, #48]	@ 0x30
 80004f0:	910d      	str	r1, [sp, #52]	@ 0x34
 80004f2:	f003 fde7 	bl	80040c4 <__aeabi_dmul>
 80004f6:	9a0c      	ldr	r2, [sp, #48]	@ 0x30
 80004f8:	9b0d      	ldr	r3, [sp, #52]	@ 0x34
 80004fa:	0006      	movs	r6, r0
 80004fc:	000f      	movs	r7, r1
 80004fe:	0010      	movs	r0, r2
 8000500:	0019      	movs	r1, r3
 8000502:	f002 fe37 	bl	8003174 <__aeabi_dadd>
 8000506:	2200      	movs	r2, #0
 8000508:	9010      	str	r0, [sp, #64]	@ 0x40
 800050a:	9111      	str	r1, [sp, #68]	@ 0x44
 800050c:	4b8f      	ldr	r3, [pc, #572]	@ (800074c <_etoa+0x39c>)
 800050e:	0030      	movs	r0, r6
 8000510:	0039      	movs	r1, r7
 8000512:	f003 f993 	bl	800383c <__aeabi_ddiv>
 8000516:	2200      	movs	r2, #0
 8000518:	4b8d      	ldr	r3, [pc, #564]	@ (8000750 <_etoa+0x3a0>)
 800051a:	f002 fe2b 	bl	8003174 <__aeabi_dadd>
 800051e:	0002      	movs	r2, r0
 8000520:	000b      	movs	r3, r1
 8000522:	0030      	movs	r0, r6
 8000524:	0039      	movs	r1, r7
 8000526:	f003 f989 	bl	800383c <__aeabi_ddiv>
 800052a:	2200      	movs	r2, #0
 800052c:	4b89      	ldr	r3, [pc, #548]	@ (8000754 <_etoa+0x3a4>)
 800052e:	f002 fe21 	bl	8003174 <__aeabi_dadd>
 8000532:	0002      	movs	r2, r0
 8000534:	000b      	movs	r3, r1
 8000536:	0030      	movs	r0, r6
 8000538:	0039      	movs	r1, r7
 800053a:	f003 f97f 	bl	800383c <__aeabi_ddiv>
 800053e:	9a0c      	ldr	r2, [sp, #48]	@ 0x30
 8000540:	9b0d      	ldr	r3, [sp, #52]	@ 0x34
 8000542:	000f      	movs	r7, r1
 8000544:	2180      	movs	r1, #128	@ 0x80
 8000546:	0006      	movs	r6, r0
 8000548:	05c9      	lsls	r1, r1, #23
 800054a:	2000      	movs	r0, #0
 800054c:	f004 f882 	bl	8004654 <__aeabi_dsub>
 8000550:	0002      	movs	r2, r0
 8000552:	000b      	movs	r3, r1
 8000554:	0030      	movs	r0, r6
 8000556:	0039      	movs	r1, r7
 8000558:	f002 fe0c 	bl	8003174 <__aeabi_dadd>
 800055c:	0002      	movs	r2, r0
 800055e:	000b      	movs	r3, r1
 8000560:	9810      	ldr	r0, [sp, #64]	@ 0x40
 8000562:	9911      	ldr	r1, [sp, #68]	@ 0x44
 8000564:	f003 f96a 	bl	800383c <__aeabi_ddiv>
 8000568:	2200      	movs	r2, #0
 800056a:	4b6d      	ldr	r3, [pc, #436]	@ (8000720 <_etoa+0x370>)
 800056c:	f002 fe02 	bl	8003174 <__aeabi_dadd>
 8000570:	4b79      	ldr	r3, [pc, #484]	@ (8000758 <_etoa+0x3a8>)
 8000572:	2200      	movs	r2, #0
 8000574:	18e4      	adds	r4, r4, r3
 8000576:	0523      	lsls	r3, r4, #20
 8000578:	f003 fda4 	bl	80040c4 <__aeabi_dmul>
 800057c:	9a06      	ldr	r2, [sp, #24]
 800057e:	9b07      	ldr	r3, [sp, #28]
 8000580:	0006      	movs	r6, r0
 8000582:	000f      	movs	r7, r1
 8000584:	f002 fcd8 	bl	8002f38 <__aeabi_dcmpgt>
 8000588:	2800      	cmp	r0, #0
 800058a:	d000      	beq.n	800058e <_etoa+0x1de>
 800058c:	e0a2      	b.n	80006d4 <_etoa+0x324>
 800058e:	960c      	str	r6, [sp, #48]	@ 0x30
 8000590:	970d      	str	r7, [sp, #52]	@ 0x34
 8000592:	002b      	movs	r3, r5
 8000594:	24c6      	movs	r4, #198	@ 0xc6
 8000596:	3363      	adds	r3, #99	@ 0x63
 8000598:	429c      	cmp	r4, r3
 800059a:	41a4      	sbcs	r4, r4
 800059c:	9b1c      	ldr	r3, [sp, #112]	@ 0x70
 800059e:	4264      	negs	r4, r4
 80005a0:	3404      	adds	r4, #4
 80005a2:	051b      	lsls	r3, r3, #20
 80005a4:	d51f      	bpl.n	80005e6 <_etoa+0x236>
 80005a6:	9806      	ldr	r0, [sp, #24]
 80005a8:	9907      	ldr	r1, [sp, #28]
 80005aa:	4a6c      	ldr	r2, [pc, #432]	@ (800075c <_etoa+0x3ac>)
 80005ac:	4b6c      	ldr	r3, [pc, #432]	@ (8000760 <_etoa+0x3b0>)
 80005ae:	f002 fccd 	bl	8002f4c <__aeabi_dcmpge>
 80005b2:	2800      	cmp	r0, #0
 80005b4:	d100      	bne.n	80005b8 <_etoa+0x208>
 80005b6:	e099      	b.n	80006ec <_etoa+0x33c>
 80005b8:	9806      	ldr	r0, [sp, #24]
 80005ba:	9907      	ldr	r1, [sp, #28]
 80005bc:	2200      	movs	r2, #0
 80005be:	4b69      	ldr	r3, [pc, #420]	@ (8000764 <_etoa+0x3b4>)
 80005c0:	f002 fca6 	bl	8002f10 <__aeabi_dcmplt>
 80005c4:	2800      	cmp	r0, #0
 80005c6:	d100      	bne.n	80005ca <_etoa+0x21a>
 80005c8:	e090      	b.n	80006ec <_etoa+0x33c>
 80005ca:	9b1a      	ldr	r3, [sp, #104]	@ 0x68
 80005cc:	42ab      	cmp	r3, r5
 80005ce:	dc00      	bgt.n	80005d2 <_etoa+0x222>
 80005d0:	e08a      	b.n	80006e8 <_etoa+0x338>
 80005d2:	1b5d      	subs	r5, r3, r5
 80005d4:	1e6b      	subs	r3, r5, #1
 80005d6:	2400      	movs	r4, #0
 80005d8:	931a      	str	r3, [sp, #104]	@ 0x68
 80005da:	2380      	movs	r3, #128	@ 0x80
 80005dc:	0025      	movs	r5, r4
 80005de:	9a1c      	ldr	r2, [sp, #112]	@ 0x70
 80005e0:	00db      	lsls	r3, r3, #3
 80005e2:	431a      	orrs	r2, r3
 80005e4:	921c      	str	r2, [sp, #112]	@ 0x70
 80005e6:	9b1b      	ldr	r3, [sp, #108]	@ 0x6c
 80005e8:	2600      	movs	r6, #0
 80005ea:	429c      	cmp	r4, r3
 80005ec:	d200      	bcs.n	80005f0 <_etoa+0x240>
 80005ee:	1b1e      	subs	r6, r3, r4
 80005f0:	2302      	movs	r3, #2
 80005f2:	9f1c      	ldr	r7, [sp, #112]	@ 0x70
 80005f4:	9a1c      	ldr	r2, [sp, #112]	@ 0x70
 80005f6:	401f      	ands	r7, r3
 80005f8:	421a      	tst	r2, r3
 80005fa:	d003      	beq.n	8000604 <_etoa+0x254>
 80005fc:	4263      	negs	r3, r4
 80005fe:	4163      	adcs	r3, r4
 8000600:	425b      	negs	r3, r3
 8000602:	401e      	ands	r6, r3
 8000604:	2d00      	cmp	r5, #0
 8000606:	d007      	beq.n	8000618 <_etoa+0x268>
 8000608:	9806      	ldr	r0, [sp, #24]
 800060a:	9907      	ldr	r1, [sp, #28]
 800060c:	9a0c      	ldr	r2, [sp, #48]	@ 0x30
 800060e:	9b0d      	ldr	r3, [sp, #52]	@ 0x34
 8000610:	f003 f914 	bl	800383c <__aeabi_ddiv>
 8000614:	9006      	str	r0, [sp, #24]
 8000616:	9107      	str	r1, [sp, #28]
 8000618:	9818      	ldr	r0, [sp, #96]	@ 0x60
 800061a:	9919      	ldr	r1, [sp, #100]	@ 0x64
 800061c:	2200      	movs	r2, #0
 800061e:	2300      	movs	r3, #0
 8000620:	f002 fc76 	bl	8002f10 <__aeabi_dcmplt>
 8000624:	2800      	cmp	r0, #0
 8000626:	d009      	beq.n	800063c <_etoa+0x28c>
 8000628:	2080      	movs	r0, #128	@ 0x80
 800062a:	0600      	lsls	r0, r0, #24
 800062c:	4684      	mov	ip, r0
 800062e:	9906      	ldr	r1, [sp, #24]
 8000630:	000a      	movs	r2, r1
 8000632:	9907      	ldr	r1, [sp, #28]
 8000634:	4461      	add	r1, ip
 8000636:	000b      	movs	r3, r1
 8000638:	9206      	str	r2, [sp, #24]
 800063a:	9307      	str	r3, [sp, #28]
 800063c:	9a1c      	ldr	r2, [sp, #112]	@ 0x70
 800063e:	4b4a      	ldr	r3, [pc, #296]	@ (8000768 <_etoa+0x3b8>)
 8000640:	990a      	ldr	r1, [sp, #40]	@ 0x28
 8000642:	4013      	ands	r3, r2
 8000644:	9304      	str	r3, [sp, #16]
 8000646:	9b1a      	ldr	r3, [sp, #104]	@ 0x68
 8000648:	9809      	ldr	r0, [sp, #36]	@ 0x24
 800064a:	9302      	str	r3, [sp, #8]
 800064c:	9603      	str	r6, [sp, #12]
 800064e:	9a06      	ldr	r2, [sp, #24]
 8000650:	9b07      	ldr	r3, [sp, #28]
 8000652:	9200      	str	r2, [sp, #0]
 8000654:	9301      	str	r3, [sp, #4]
 8000656:	9a0e      	ldr	r2, [sp, #56]	@ 0x38
 8000658:	9b0b      	ldr	r3, [sp, #44]	@ 0x2c
 800065a:	f000 f887 	bl	800076c <_ftoa>
 800065e:	0002      	movs	r2, r0
 8000660:	2c00      	cmp	r4, #0
 8000662:	d100      	bne.n	8000666 <_etoa+0x2b6>
 8000664:	e6d5      	b.n	8000412 <_etoa+0x62>
 8000666:	9b1c      	ldr	r3, [sp, #112]	@ 0x70
 8000668:	2065      	movs	r0, #101	@ 0x65
 800066a:	069b      	lsls	r3, r3, #26
 800066c:	d500      	bpl.n	8000670 <_etoa+0x2c0>
 800066e:	3820      	subs	r0, #32
 8000670:	1c53      	adds	r3, r2, #1
 8000672:	990a      	ldr	r1, [sp, #40]	@ 0x28
 8000674:	9306      	str	r3, [sp, #24]
 8000676:	9e09      	ldr	r6, [sp, #36]	@ 0x24
 8000678:	9b0b      	ldr	r3, [sp, #44]	@ 0x2c
 800067a:	47b0      	blx	r6
 800067c:	2305      	movs	r3, #5
 800067e:	9305      	str	r3, [sp, #20]
 8000680:	2300      	movs	r3, #0
 8000682:	9303      	str	r3, [sp, #12]
 8000684:	330a      	adds	r3, #10
 8000686:	9302      	str	r3, [sp, #8]
 8000688:	0feb      	lsrs	r3, r5, #31
 800068a:	9301      	str	r3, [sp, #4]
 800068c:	17eb      	asrs	r3, r5, #31
 800068e:	18ed      	adds	r5, r5, r3
 8000690:	405d      	eors	r5, r3
 8000692:	3c01      	subs	r4, #1
 8000694:	9a06      	ldr	r2, [sp, #24]
 8000696:	9b0b      	ldr	r3, [sp, #44]	@ 0x2c
 8000698:	990a      	ldr	r1, [sp, #40]	@ 0x28
 800069a:	9809      	ldr	r0, [sp, #36]	@ 0x24
 800069c:	9404      	str	r4, [sp, #16]
 800069e:	9500      	str	r5, [sp, #0]
 80006a0:	f7ff fde2 	bl	8000268 <_ntoa_long>
 80006a4:	0002      	movs	r2, r0
 80006a6:	2f00      	cmp	r7, #0
 80006a8:	d100      	bne.n	80006ac <_etoa+0x2fc>
 80006aa:	e6b2      	b.n	8000412 <_etoa+0x62>
 80006ac:	9b0e      	ldr	r3, [sp, #56]	@ 0x38
 80006ae:	1ac4      	subs	r4, r0, r3
 80006b0:	9b0e      	ldr	r3, [sp, #56]	@ 0x38
 80006b2:	191a      	adds	r2, r3, r4
 80006b4:	9b1b      	ldr	r3, [sp, #108]	@ 0x6c
 80006b6:	42a3      	cmp	r3, r4
 80006b8:	d800      	bhi.n	80006bc <_etoa+0x30c>
 80006ba:	e6aa      	b.n	8000412 <_etoa+0x62>
 80006bc:	2020      	movs	r0, #32
 80006be:	9b0b      	ldr	r3, [sp, #44]	@ 0x2c
 80006c0:	990a      	ldr	r1, [sp, #40]	@ 0x28
 80006c2:	9d09      	ldr	r5, [sp, #36]	@ 0x24
 80006c4:	47a8      	blx	r5
 80006c6:	3401      	adds	r4, #1
 80006c8:	e7f2      	b.n	80006b0 <_etoa+0x300>
 80006ca:	9b18      	ldr	r3, [sp, #96]	@ 0x60
 80006cc:	9c19      	ldr	r4, [sp, #100]	@ 0x64
 80006ce:	9306      	str	r3, [sp, #24]
 80006d0:	9407      	str	r4, [sp, #28]
 80006d2:	e6b2      	b.n	800043a <_etoa+0x8a>
 80006d4:	2200      	movs	r2, #0
 80006d6:	0030      	movs	r0, r6
 80006d8:	0039      	movs	r1, r7
 80006da:	4b1d      	ldr	r3, [pc, #116]	@ (8000750 <_etoa+0x3a0>)
 80006dc:	f003 f8ae 	bl	800383c <__aeabi_ddiv>
 80006e0:	3d01      	subs	r5, #1
 80006e2:	900c      	str	r0, [sp, #48]	@ 0x30
 80006e4:	910d      	str	r1, [sp, #52]	@ 0x34
 80006e6:	e754      	b.n	8000592 <_etoa+0x1e2>
 80006e8:	2300      	movs	r3, #0
 80006ea:	e774      	b.n	80005d6 <_etoa+0x226>
 80006ec:	9b1a      	ldr	r3, [sp, #104]	@ 0x68
 80006ee:	2b00      	cmp	r3, #0
 80006f0:	d100      	bne.n	80006f4 <_etoa+0x344>
 80006f2:	e778      	b.n	80005e6 <_etoa+0x236>
 80006f4:	9b0f      	ldr	r3, [sp, #60]	@ 0x3c
 80006f6:	1e5a      	subs	r2, r3, #1
 80006f8:	4193      	sbcs	r3, r2
 80006fa:	9a1a      	ldr	r2, [sp, #104]	@ 0x68
 80006fc:	1ad3      	subs	r3, r2, r3
 80006fe:	931a      	str	r3, [sp, #104]	@ 0x68
 8000700:	e771      	b.n	80005e6 <_etoa+0x236>
 8000702:	46c0      	nop			@ (mov r8, r8)
 8000704:	7fefffff 	svcvc	0x00efffff
 8000708:	ffefffff 			@ <UNDEFINED> instruction: 0xffefffff
 800070c:	fffffc01 			@ <UNDEFINED> instruction: 0xfffffc01
 8000710:	509f79fb 			@ <UNDEFINED> instruction: 0x509f79fb
 8000714:	3fd34413 	svccc	0x00d34413
 8000718:	8b60c8b3 	blhi	98329ec <appMetaData+0x182b1ec>
 800071c:	3fc68a28 	svccc	0x00c68a28
 8000720:	3ff00000 	svccc	0x00f00000	@ IMB
 8000724:	3ff80000 	svccc	0x00f80000
 8000728:	636f4361 	cmnvs	pc, #-2080374783	@ 0x84000001
 800072c:	3fd287a7 	svccc	0x00d287a7
 8000730:	0979a371 	ldmdbeq	r9!, {r0, r4, r5, r6, r8, r9, sp, pc}^
 8000734:	400a934f 	andmi	r9, sl, pc, asr #6
 8000738:	3fe00000 	svccc	0x00e00000
 800073c:	bbb55516 	bllt	6d55b9c <vector_table-0x12aa464>
 8000740:	40026bb1 			@ <UNDEFINED> instruction: 0x40026bb1
 8000744:	fefa39ef 			@ <UNDEFINED> instruction: 0xfefa39ef
 8000748:	3fe62e42 	svccc	0x00e62e42
 800074c:	402c0000 	eormi	r0, ip, r0
 8000750:	40240000 	eormi	r0, r4, r0
 8000754:	40180000 	andsmi	r0, r8, r0
 8000758:	000003ff 	strdeq	r0, [r0], -pc	@ <UNPREDICTABLE>
 800075c:	eb1c432d 	bl	8711418 <appMetaData+0x709c18>
 8000760:	3f1a36e2 	svccc	0x001a36e2
 8000764:	412e8480 	smlawbmi	lr, r0, r4, r8
 8000768:	fffff7ff 			@ <UNDEFINED> instruction: 0xfffff7ff

0800076c <_ftoa>:
 800076c:	b5f0      	push	{r4, r5, r6, r7, lr}
 800076e:	b09b      	sub	sp, #108	@ 0x6c
 8000770:	9e20      	ldr	r6, [sp, #128]	@ 0x80
 8000772:	9f21      	ldr	r7, [sp, #132]	@ 0x84
 8000774:	9009      	str	r0, [sp, #36]	@ 0x24
 8000776:	910a      	str	r1, [sp, #40]	@ 0x28
 8000778:	920b      	str	r2, [sp, #44]	@ 0x2c
 800077a:	930c      	str	r3, [sp, #48]	@ 0x30
 800077c:	0032      	movs	r2, r6
 800077e:	003b      	movs	r3, r7
 8000780:	0030      	movs	r0, r6
 8000782:	0039      	movs	r1, r7
 8000784:	9d22      	ldr	r5, [sp, #136]	@ 0x88
 8000786:	f002 fbbd 	bl	8002f04 <__aeabi_dcmpeq>
 800078a:	2800      	cmp	r0, #0
 800078c:	d108      	bne.n	80007a0 <_ftoa+0x34>
 800078e:	9b24      	ldr	r3, [sp, #144]	@ 0x90
 8000790:	9303      	str	r3, [sp, #12]
 8000792:	9b23      	ldr	r3, [sp, #140]	@ 0x8c
 8000794:	9302      	str	r3, [sp, #8]
 8000796:	2303      	movs	r3, #3
 8000798:	9301      	str	r3, [sp, #4]
 800079a:	4bb1      	ldr	r3, [pc, #708]	@ (8000a60 <_ftoa+0x2f4>)
 800079c:	9300      	str	r3, [sp, #0]
 800079e:	e024      	b.n	80007ea <_ftoa+0x7e>
 80007a0:	2201      	movs	r2, #1
 80007a2:	0030      	movs	r0, r6
 80007a4:	0039      	movs	r1, r7
 80007a6:	4baf      	ldr	r3, [pc, #700]	@ (8000a64 <_ftoa+0x2f8>)
 80007a8:	4252      	negs	r2, r2
 80007aa:	f002 fbb1 	bl	8002f10 <__aeabi_dcmplt>
 80007ae:	2800      	cmp	r0, #0
 80007b0:	d007      	beq.n	80007c2 <_ftoa+0x56>
 80007b2:	9b24      	ldr	r3, [sp, #144]	@ 0x90
 80007b4:	9303      	str	r3, [sp, #12]
 80007b6:	9b23      	ldr	r3, [sp, #140]	@ 0x8c
 80007b8:	9302      	str	r3, [sp, #8]
 80007ba:	2304      	movs	r3, #4
 80007bc:	9301      	str	r3, [sp, #4]
 80007be:	4baa      	ldr	r3, [pc, #680]	@ (8000a68 <_ftoa+0x2fc>)
 80007c0:	e7ec      	b.n	800079c <_ftoa+0x30>
 80007c2:	2201      	movs	r2, #1
 80007c4:	0030      	movs	r0, r6
 80007c6:	0039      	movs	r1, r7
 80007c8:	4ba8      	ldr	r3, [pc, #672]	@ (8000a6c <_ftoa+0x300>)
 80007ca:	4252      	negs	r2, r2
 80007cc:	f002 fbb4 	bl	8002f38 <__aeabi_dcmpgt>
 80007d0:	2800      	cmp	r0, #0
 80007d2:	d014      	beq.n	80007fe <_ftoa+0x92>
 80007d4:	2304      	movs	r3, #4
 80007d6:	9a24      	ldr	r2, [sp, #144]	@ 0x90
 80007d8:	421a      	tst	r2, r3
 80007da:	d00d      	beq.n	80007f8 <_ftoa+0x8c>
 80007dc:	4aa4      	ldr	r2, [pc, #656]	@ (8000a70 <_ftoa+0x304>)
 80007de:	9924      	ldr	r1, [sp, #144]	@ 0x90
 80007e0:	9301      	str	r3, [sp, #4]
 80007e2:	9103      	str	r1, [sp, #12]
 80007e4:	9923      	ldr	r1, [sp, #140]	@ 0x8c
 80007e6:	9200      	str	r2, [sp, #0]
 80007e8:	9102      	str	r1, [sp, #8]
 80007ea:	9b0c      	ldr	r3, [sp, #48]	@ 0x30
 80007ec:	9a0b      	ldr	r2, [sp, #44]	@ 0x2c
 80007ee:	990a      	ldr	r1, [sp, #40]	@ 0x28
 80007f0:	9809      	ldr	r0, [sp, #36]	@ 0x24
 80007f2:	f7ff fc66 	bl	80000c2 <_out_rev>
 80007f6:	e01f      	b.n	8000838 <_ftoa+0xcc>
 80007f8:	2303      	movs	r3, #3
 80007fa:	4a9e      	ldr	r2, [pc, #632]	@ (8000a74 <_ftoa+0x308>)
 80007fc:	e7ef      	b.n	80007de <_ftoa+0x72>
 80007fe:	2200      	movs	r2, #0
 8000800:	0030      	movs	r0, r6
 8000802:	0039      	movs	r1, r7
 8000804:	4b9c      	ldr	r3, [pc, #624]	@ (8000a78 <_ftoa+0x30c>)
 8000806:	f002 fb97 	bl	8002f38 <__aeabi_dcmpgt>
 800080a:	2800      	cmp	r0, #0
 800080c:	d107      	bne.n	800081e <_ftoa+0xb2>
 800080e:	2200      	movs	r2, #0
 8000810:	0030      	movs	r0, r6
 8000812:	0039      	movs	r1, r7
 8000814:	4b99      	ldr	r3, [pc, #612]	@ (8000a7c <_ftoa+0x310>)
 8000816:	f002 fb7b 	bl	8002f10 <__aeabi_dcmplt>
 800081a:	2800      	cmp	r0, #0
 800081c:	d00e      	beq.n	800083c <_ftoa+0xd0>
 800081e:	9b24      	ldr	r3, [sp, #144]	@ 0x90
 8000820:	9600      	str	r6, [sp, #0]
 8000822:	9701      	str	r7, [sp, #4]
 8000824:	9304      	str	r3, [sp, #16]
 8000826:	9b23      	ldr	r3, [sp, #140]	@ 0x8c
 8000828:	9a0b      	ldr	r2, [sp, #44]	@ 0x2c
 800082a:	9303      	str	r3, [sp, #12]
 800082c:	990a      	ldr	r1, [sp, #40]	@ 0x28
 800082e:	9b0c      	ldr	r3, [sp, #48]	@ 0x30
 8000830:	9809      	ldr	r0, [sp, #36]	@ 0x24
 8000832:	9502      	str	r5, [sp, #8]
 8000834:	f7ff fdbc 	bl	80003b0 <_etoa>
 8000838:	b01b      	add	sp, #108	@ 0x6c
 800083a:	bdf0      	pop	{r4, r5, r6, r7, pc}
 800083c:	2200      	movs	r2, #0
 800083e:	2300      	movs	r3, #0
 8000840:	0030      	movs	r0, r6
 8000842:	0039      	movs	r1, r7
 8000844:	f002 fb64 	bl	8002f10 <__aeabi_dcmplt>
 8000848:	2800      	cmp	r0, #0
 800084a:	d100      	bne.n	800084e <_ftoa+0xe2>
 800084c:	e089      	b.n	8000962 <_ftoa+0x1f6>
 800084e:	003b      	movs	r3, r7
 8000850:	0032      	movs	r2, r6
 8000852:	2000      	movs	r0, #0
 8000854:	2100      	movs	r1, #0
 8000856:	f003 fefd 	bl	8004654 <__aeabi_dsub>
 800085a:	2301      	movs	r3, #1
 800085c:	0006      	movs	r6, r0
 800085e:	000f      	movs	r7, r1
 8000860:	930d      	str	r3, [sp, #52]	@ 0x34
 8000862:	2206      	movs	r2, #6
 8000864:	2380      	movs	r3, #128	@ 0x80
 8000866:	9c24      	ldr	r4, [sp, #144]	@ 0x90
 8000868:	9208      	str	r2, [sp, #32]
 800086a:	9a24      	ldr	r2, [sp, #144]	@ 0x90
 800086c:	00db      	lsls	r3, r3, #3
 800086e:	401c      	ands	r4, r3
 8000870:	421a      	tst	r2, r3
 8000872:	d011      	beq.n	8000898 <_ftoa+0x12c>
 8000874:	2400      	movs	r4, #0
 8000876:	9508      	str	r5, [sp, #32]
 8000878:	2d09      	cmp	r5, #9
 800087a:	d90d      	bls.n	8000898 <_ftoa+0x12c>
 800087c:	2217      	movs	r2, #23
 800087e:	a90c      	add	r1, sp, #48	@ 0x30
 8000880:	002b      	movs	r3, r5
 8000882:	1852      	adds	r2, r2, r1
 8000884:	2130      	movs	r1, #48	@ 0x30
 8000886:	3b09      	subs	r3, #9
 8000888:	3401      	adds	r4, #1
 800088a:	1b28      	subs	r0, r5, r4
 800088c:	5511      	strb	r1, [r2, r4]
 800088e:	9008      	str	r0, [sp, #32]
 8000890:	2c20      	cmp	r4, #32
 8000892:	d001      	beq.n	8000898 <_ftoa+0x12c>
 8000894:	429c      	cmp	r4, r3
 8000896:	d1f7      	bne.n	8000888 <_ftoa+0x11c>
 8000898:	0039      	movs	r1, r7
 800089a:	0030      	movs	r0, r6
 800089c:	f004 fa76 	bl	8004d8c <__aeabi_d2iz>
 80008a0:	9a08      	ldr	r2, [sp, #32]
 80008a2:	4b77      	ldr	r3, [pc, #476]	@ (8000a80 <_ftoa+0x314>)
 80008a4:	00d2      	lsls	r2, r2, #3
 80008a6:	189b      	adds	r3, r3, r2
 80008a8:	681a      	ldr	r2, [r3, #0]
 80008aa:	685b      	ldr	r3, [r3, #4]
 80008ac:	9007      	str	r0, [sp, #28]
 80008ae:	920e      	str	r2, [sp, #56]	@ 0x38
 80008b0:	930f      	str	r3, [sp, #60]	@ 0x3c
 80008b2:	f004 faa7 	bl	8004e04 <__aeabi_i2d>
 80008b6:	0002      	movs	r2, r0
 80008b8:	000b      	movs	r3, r1
 80008ba:	0030      	movs	r0, r6
 80008bc:	0039      	movs	r1, r7
 80008be:	f003 fec9 	bl	8004654 <__aeabi_dsub>
 80008c2:	9a0e      	ldr	r2, [sp, #56]	@ 0x38
 80008c4:	9b0f      	ldr	r3, [sp, #60]	@ 0x3c
 80008c6:	f003 fbfd 	bl	80040c4 <__aeabi_dmul>
 80008ca:	9010      	str	r0, [sp, #64]	@ 0x40
 80008cc:	9111      	str	r1, [sp, #68]	@ 0x44
 80008ce:	f002 fb67 	bl	8002fa0 <__aeabi_d2uiz>
 80008d2:	0005      	movs	r5, r0
 80008d4:	f004 fac4 	bl	8004e60 <__aeabi_ui2d>
 80008d8:	0002      	movs	r2, r0
 80008da:	000b      	movs	r3, r1
 80008dc:	9810      	ldr	r0, [sp, #64]	@ 0x40
 80008de:	9911      	ldr	r1, [sp, #68]	@ 0x44
 80008e0:	f003 feb8 	bl	8004654 <__aeabi_dsub>
 80008e4:	2200      	movs	r2, #0
 80008e6:	4b67      	ldr	r3, [pc, #412]	@ (8000a84 <_ftoa+0x318>)
 80008e8:	9010      	str	r0, [sp, #64]	@ 0x40
 80008ea:	9111      	str	r1, [sp, #68]	@ 0x44
 80008ec:	f002 fb24 	bl	8002f38 <__aeabi_dcmpgt>
 80008f0:	2800      	cmp	r0, #0
 80008f2:	d038      	beq.n	8000966 <_ftoa+0x1fa>
 80008f4:	3501      	adds	r5, #1
 80008f6:	0028      	movs	r0, r5
 80008f8:	f004 fab2 	bl	8004e60 <__aeabi_ui2d>
 80008fc:	0002      	movs	r2, r0
 80008fe:	000b      	movs	r3, r1
 8000900:	980e      	ldr	r0, [sp, #56]	@ 0x38
 8000902:	990f      	ldr	r1, [sp, #60]	@ 0x3c
 8000904:	f002 fb0e 	bl	8002f24 <__aeabi_dcmple>
 8000908:	2800      	cmp	r0, #0
 800090a:	d003      	beq.n	8000914 <_ftoa+0x1a8>
 800090c:	2500      	movs	r5, #0
 800090e:	9b07      	ldr	r3, [sp, #28]
 8000910:	3301      	adds	r3, #1
 8000912:	9307      	str	r3, [sp, #28]
 8000914:	9b08      	ldr	r3, [sp, #32]
 8000916:	2b00      	cmp	r3, #0
 8000918:	d033      	beq.n	8000982 <_ftoa+0x216>
 800091a:	260a      	movs	r6, #10
 800091c:	2c20      	cmp	r4, #32
 800091e:	d013      	beq.n	8000948 <_ftoa+0x1dc>
 8000920:	9b08      	ldr	r3, [sp, #32]
 8000922:	aa0c      	add	r2, sp, #48	@ 0x30
 8000924:	3b01      	subs	r3, #1
 8000926:	9308      	str	r3, [sp, #32]
 8000928:	2317      	movs	r3, #23
 800092a:	0031      	movs	r1, r6
 800092c:	189b      	adds	r3, r3, r2
 800092e:	0028      	movs	r0, r5
 8000930:	3401      	adds	r4, #1
 8000932:	18e7      	adds	r7, r4, r3
 8000934:	f002 f9e6 	bl	8002d04 <__aeabi_uidivmod>
 8000938:	3130      	adds	r1, #48	@ 0x30
 800093a:	7039      	strb	r1, [r7, #0]
 800093c:	0028      	movs	r0, r5
 800093e:	0031      	movs	r1, r6
 8000940:	f002 f95a 	bl	8002bf8 <__udivsi3>
 8000944:	2d09      	cmp	r5, #9
 8000946:	d863      	bhi.n	8000a10 <_ftoa+0x2a4>
 8000948:	2030      	movs	r0, #48	@ 0x30
 800094a:	9b08      	ldr	r3, [sp, #32]
 800094c:	aa12      	add	r2, sp, #72	@ 0x48
 800094e:	18e3      	adds	r3, r4, r3
 8000950:	2c20      	cmp	r4, #32
 8000952:	d034      	beq.n	80009be <_ftoa+0x252>
 8000954:	1c61      	adds	r1, r4, #1
 8000956:	42a3      	cmp	r3, r4
 8000958:	d15c      	bne.n	8000a14 <_ftoa+0x2a8>
 800095a:	000c      	movs	r4, r1
 800095c:	212e      	movs	r1, #46	@ 0x2e
 800095e:	54d1      	strb	r1, [r2, r3]
 8000960:	e02d      	b.n	80009be <_ftoa+0x252>
 8000962:	900d      	str	r0, [sp, #52]	@ 0x34
 8000964:	e77d      	b.n	8000862 <_ftoa+0xf6>
 8000966:	2200      	movs	r2, #0
 8000968:	9810      	ldr	r0, [sp, #64]	@ 0x40
 800096a:	9911      	ldr	r1, [sp, #68]	@ 0x44
 800096c:	4b45      	ldr	r3, [pc, #276]	@ (8000a84 <_ftoa+0x318>)
 800096e:	f002 facf 	bl	8002f10 <__aeabi_dcmplt>
 8000972:	2800      	cmp	r0, #0
 8000974:	d1ce      	bne.n	8000914 <_ftoa+0x1a8>
 8000976:	2d00      	cmp	r5, #0
 8000978:	d001      	beq.n	800097e <_ftoa+0x212>
 800097a:	07eb      	lsls	r3, r5, #31
 800097c:	d5ca      	bpl.n	8000914 <_ftoa+0x1a8>
 800097e:	3501      	adds	r5, #1
 8000980:	e7c8      	b.n	8000914 <_ftoa+0x1a8>
 8000982:	9807      	ldr	r0, [sp, #28]
 8000984:	f004 fa3e 	bl	8004e04 <__aeabi_i2d>
 8000988:	0002      	movs	r2, r0
 800098a:	000b      	movs	r3, r1
 800098c:	0030      	movs	r0, r6
 800098e:	0039      	movs	r1, r7
 8000990:	f003 fe60 	bl	8004654 <__aeabi_dsub>
 8000994:	2200      	movs	r2, #0
 8000996:	4b3b      	ldr	r3, [pc, #236]	@ (8000a84 <_ftoa+0x318>)
 8000998:	0006      	movs	r6, r0
 800099a:	000f      	movs	r7, r1
 800099c:	f002 fab8 	bl	8002f10 <__aeabi_dcmplt>
 80009a0:	2800      	cmp	r0, #0
 80009a2:	d007      	beq.n	80009b4 <_ftoa+0x248>
 80009a4:	2200      	movs	r2, #0
 80009a6:	0030      	movs	r0, r6
 80009a8:	0039      	movs	r1, r7
 80009aa:	4b36      	ldr	r3, [pc, #216]	@ (8000a84 <_ftoa+0x318>)
 80009ac:	f002 fac4 	bl	8002f38 <__aeabi_dcmpgt>
 80009b0:	2800      	cmp	r0, #0
 80009b2:	d004      	beq.n	80009be <_ftoa+0x252>
 80009b4:	2301      	movs	r3, #1
 80009b6:	9a07      	ldr	r2, [sp, #28]
 80009b8:	4013      	ands	r3, r2
 80009ba:	18d3      	adds	r3, r2, r3
 80009bc:	9307      	str	r3, [sp, #28]
 80009be:	250a      	movs	r5, #10
 80009c0:	2c20      	cmp	r4, #32
 80009c2:	d011      	beq.n	80009e8 <_ftoa+0x27c>
 80009c4:	2317      	movs	r3, #23
 80009c6:	aa0c      	add	r2, sp, #48	@ 0x30
 80009c8:	189b      	adds	r3, r3, r2
 80009ca:	9807      	ldr	r0, [sp, #28]
 80009cc:	0029      	movs	r1, r5
 80009ce:	3401      	adds	r4, #1
 80009d0:	18e6      	adds	r6, r4, r3
 80009d2:	f002 fa81 	bl	8002ed8 <__aeabi_idivmod>
 80009d6:	3130      	adds	r1, #48	@ 0x30
 80009d8:	9807      	ldr	r0, [sp, #28]
 80009da:	7031      	strb	r1, [r6, #0]
 80009dc:	0029      	movs	r1, r5
 80009de:	f002 f995 	bl	8002d0c <__divsi3>
 80009e2:	9007      	str	r0, [sp, #28]
 80009e4:	2800      	cmp	r0, #0
 80009e6:	d1eb      	bne.n	80009c0 <_ftoa+0x254>
 80009e8:	2303      	movs	r3, #3
 80009ea:	9a24      	ldr	r2, [sp, #144]	@ 0x90
 80009ec:	4013      	ands	r3, r2
 80009ee:	2b01      	cmp	r3, #1
 80009f0:	d121      	bne.n	8000a36 <_ftoa+0x2ca>
 80009f2:	9b23      	ldr	r3, [sp, #140]	@ 0x8c
 80009f4:	2b00      	cmp	r3, #0
 80009f6:	d01e      	beq.n	8000a36 <_ftoa+0x2ca>
 80009f8:	9b0d      	ldr	r3, [sp, #52]	@ 0x34
 80009fa:	2b00      	cmp	r3, #0
 80009fc:	d102      	bne.n	8000a04 <_ftoa+0x298>
 80009fe:	330c      	adds	r3, #12
 8000a00:	421a      	tst	r2, r3
 8000a02:	d002      	beq.n	8000a0a <_ftoa+0x29e>
 8000a04:	9b23      	ldr	r3, [sp, #140]	@ 0x8c
 8000a06:	3b01      	subs	r3, #1
 8000a08:	9323      	str	r3, [sp, #140]	@ 0x8c
 8000a0a:	2230      	movs	r2, #48	@ 0x30
 8000a0c:	ab12      	add	r3, sp, #72	@ 0x48
 8000a0e:	e006      	b.n	8000a1e <_ftoa+0x2b2>
 8000a10:	0005      	movs	r5, r0
 8000a12:	e783      	b.n	800091c <_ftoa+0x1b0>
 8000a14:	5510      	strb	r0, [r2, r4]
 8000a16:	000c      	movs	r4, r1
 8000a18:	e79a      	b.n	8000950 <_ftoa+0x1e4>
 8000a1a:	54e2      	strb	r2, [r4, r3]
 8000a1c:	3401      	adds	r4, #1
 8000a1e:	9923      	ldr	r1, [sp, #140]	@ 0x8c
 8000a20:	42a1      	cmp	r1, r4
 8000a22:	d908      	bls.n	8000a36 <_ftoa+0x2ca>
 8000a24:	2c20      	cmp	r4, #32
 8000a26:	d1f8      	bne.n	8000a1a <_ftoa+0x2ae>
 8000a28:	9b24      	ldr	r3, [sp, #144]	@ 0x90
 8000a2a:	9401      	str	r4, [sp, #4]
 8000a2c:	9303      	str	r3, [sp, #12]
 8000a2e:	9b23      	ldr	r3, [sp, #140]	@ 0x8c
 8000a30:	9302      	str	r3, [sp, #8]
 8000a32:	ab12      	add	r3, sp, #72	@ 0x48
 8000a34:	e6b2      	b.n	800079c <_ftoa+0x30>
 8000a36:	2c20      	cmp	r4, #32
 8000a38:	d0f6      	beq.n	8000a28 <_ftoa+0x2bc>
 8000a3a:	9a0d      	ldr	r2, [sp, #52]	@ 0x34
 8000a3c:	ab12      	add	r3, sp, #72	@ 0x48
 8000a3e:	2a00      	cmp	r2, #0
 8000a40:	d003      	beq.n	8000a4a <_ftoa+0x2de>
 8000a42:	222d      	movs	r2, #45	@ 0x2d
 8000a44:	551a      	strb	r2, [r3, r4]
 8000a46:	3401      	adds	r4, #1
 8000a48:	e7ee      	b.n	8000a28 <_ftoa+0x2bc>
 8000a4a:	9a24      	ldr	r2, [sp, #144]	@ 0x90
 8000a4c:	0752      	lsls	r2, r2, #29
 8000a4e:	d501      	bpl.n	8000a54 <_ftoa+0x2e8>
 8000a50:	222b      	movs	r2, #43	@ 0x2b
 8000a52:	e7f7      	b.n	8000a44 <_ftoa+0x2d8>
 8000a54:	9a24      	ldr	r2, [sp, #144]	@ 0x90
 8000a56:	0712      	lsls	r2, r2, #28
 8000a58:	d5e6      	bpl.n	8000a28 <_ftoa+0x2bc>
 8000a5a:	2220      	movs	r2, #32
 8000a5c:	e7f2      	b.n	8000a44 <_ftoa+0x2d8>
 8000a5e:	46c0      	nop			@ (mov r8, r8)
 8000a60:	08004f05 	stmdaeq	r0, {r0, r2, r8, r9, sl, fp, lr}
 8000a64:	ffefffff 			@ <UNDEFINED> instruction: 0xffefffff
 8000a68:	08004f09 	stmdaeq	r0, {r0, r3, r8, r9, sl, fp, lr}
 8000a6c:	7fefffff 	svcvc	0x00efffff
 8000a70:	08004efc 	stmdaeq	r0, {r2, r3, r4, r5, r6, r7, r9, sl, fp, lr}
 8000a74:	08004f01 	stmdaeq	r0, {r0, r8, r9, sl, fp, lr}
 8000a78:	41cdcd65 	bicmi	ip, sp, r5, ror #26
 8000a7c:	c1cdcd65 	bicgt	ip, sp, r5, ror #26
 8000a80:	08004f10 	stmdaeq	r0, {r4, r8, r9, sl, fp, lr}
 8000a84:	3fe00000 	svccc	0x00e00000

08000a88 <_out_char>:
 8000a88:	b510      	push	{r4, lr}
 8000a8a:	2800      	cmp	r0, #0
 8000a8c:	d001      	beq.n	8000a92 <_out_char+0xa>
 8000a8e:	f001 f859 	bl	8001b44 <_putchar>
 8000a92:	bd10      	pop	{r4, pc}

08000a94 <_vsnprintf>:
 8000a94:	b5f0      	push	{r4, r5, r6, r7, lr}
 8000a96:	b09b      	sub	sp, #108	@ 0x6c
 8000a98:	9f20      	ldr	r7, [sp, #128]	@ 0x80
 8000a9a:	900e      	str	r0, [sp, #56]	@ 0x38
 8000a9c:	910f      	str	r1, [sp, #60]	@ 0x3c
 8000a9e:	920d      	str	r2, [sp, #52]	@ 0x34
 8000aa0:	930b      	str	r3, [sp, #44]	@ 0x2c
 8000aa2:	2900      	cmp	r1, #0
 8000aa4:	d101      	bne.n	8000aaa <_vsnprintf+0x16>
 8000aa6:	4ba9      	ldr	r3, [pc, #676]	@ (8000d4c <_vsnprintf+0x2b8>)
 8000aa8:	930e      	str	r3, [sp, #56]	@ 0x38
 8000aaa:	2600      	movs	r6, #0
 8000aac:	e00b      	b.n	8000ac6 <_vsnprintf+0x32>
 8000aae:	9b0b      	ldr	r3, [sp, #44]	@ 0x2c
 8000ab0:	3301      	adds	r3, #1
 8000ab2:	930b      	str	r3, [sp, #44]	@ 0x2c
 8000ab4:	2825      	cmp	r0, #37	@ 0x25
 8000ab6:	d017      	beq.n	8000ae8 <_vsnprintf+0x54>
 8000ab8:	0032      	movs	r2, r6
 8000aba:	9b0d      	ldr	r3, [sp, #52]	@ 0x34
 8000abc:	990f      	ldr	r1, [sp, #60]	@ 0x3c
 8000abe:	9d0e      	ldr	r5, [sp, #56]	@ 0x38
 8000ac0:	1c74      	adds	r4, r6, #1
 8000ac2:	47a8      	blx	r5
 8000ac4:	0026      	movs	r6, r4
 8000ac6:	9b0b      	ldr	r3, [sp, #44]	@ 0x2c
 8000ac8:	7818      	ldrb	r0, [r3, #0]
 8000aca:	2800      	cmp	r0, #0
 8000acc:	d1ef      	bne.n	8000aae <_vsnprintf+0x1a>
 8000ace:	9b0d      	ldr	r3, [sp, #52]	@ 0x34
 8000ad0:	0032      	movs	r2, r6
 8000ad2:	429e      	cmp	r6, r3
 8000ad4:	d300      	bcc.n	8000ad8 <_vsnprintf+0x44>
 8000ad6:	1e5a      	subs	r2, r3, #1
 8000ad8:	2000      	movs	r0, #0
 8000ada:	9b0d      	ldr	r3, [sp, #52]	@ 0x34
 8000adc:	990f      	ldr	r1, [sp, #60]	@ 0x3c
 8000ade:	9c0e      	ldr	r4, [sp, #56]	@ 0x38
 8000ae0:	47a0      	blx	r4
 8000ae2:	0030      	movs	r0, r6
 8000ae4:	b01b      	add	sp, #108	@ 0x6c
 8000ae6:	bdf0      	pop	{r4, r5, r6, r7, pc}
 8000ae8:	2300      	movs	r3, #0
 8000aea:	2001      	movs	r0, #1
 8000aec:	2408      	movs	r4, #8
 8000aee:	e01d      	b.n	8000b2c <_vsnprintf+0x98>
 8000af0:	2a2d      	cmp	r2, #45	@ 0x2d
 8000af2:	d031      	beq.n	8000b58 <_vsnprintf+0xc4>
 8000af4:	2a30      	cmp	r2, #48	@ 0x30
 8000af6:	d017      	beq.n	8000b28 <_vsnprintf+0x94>
 8000af8:	3a30      	subs	r2, #48	@ 0x30
 8000afa:	2500      	movs	r5, #0
 8000afc:	2a09      	cmp	r2, #9
 8000afe:	d941      	bls.n	8000b84 <_vsnprintf+0xf0>
 8000b00:	2100      	movs	r1, #0
 8000b02:	9a0b      	ldr	r2, [sp, #44]	@ 0x2c
 8000b04:	910c      	str	r1, [sp, #48]	@ 0x30
 8000b06:	7812      	ldrb	r2, [r2, #0]
 8000b08:	2a2e      	cmp	r2, #46	@ 0x2e
 8000b0a:	d14b      	bne.n	8000ba4 <_vsnprintf+0x110>
 8000b0c:	2180      	movs	r1, #128	@ 0x80
 8000b0e:	00c9      	lsls	r1, r1, #3
 8000b10:	430b      	orrs	r3, r1
 8000b12:	990b      	ldr	r1, [sp, #44]	@ 0x2c
 8000b14:	9a0b      	ldr	r2, [sp, #44]	@ 0x2c
 8000b16:	7849      	ldrb	r1, [r1, #1]
 8000b18:	3201      	adds	r2, #1
 8000b1a:	0008      	movs	r0, r1
 8000b1c:	3830      	subs	r0, #48	@ 0x30
 8000b1e:	2809      	cmp	r0, #9
 8000b20:	d85f      	bhi.n	8000be2 <_vsnprintf+0x14e>
 8000b22:	210a      	movs	r1, #10
 8000b24:	468c      	mov	ip, r1
 8000b26:	e036      	b.n	8000b96 <_vsnprintf+0x102>
 8000b28:	4303      	orrs	r3, r0
 8000b2a:	910b      	str	r1, [sp, #44]	@ 0x2c
 8000b2c:	9a0b      	ldr	r2, [sp, #44]	@ 0x2c
 8000b2e:	990b      	ldr	r1, [sp, #44]	@ 0x2c
 8000b30:	7812      	ldrb	r2, [r2, #0]
 8000b32:	3101      	adds	r1, #1
 8000b34:	2a2b      	cmp	r2, #43	@ 0x2b
 8000b36:	d012      	beq.n	8000b5e <_vsnprintf+0xca>
 8000b38:	d8da      	bhi.n	8000af0 <_vsnprintf+0x5c>
 8000b3a:	2a20      	cmp	r2, #32
 8000b3c:	d011      	beq.n	8000b62 <_vsnprintf+0xce>
 8000b3e:	2a23      	cmp	r2, #35	@ 0x23
 8000b40:	d011      	beq.n	8000b66 <_vsnprintf+0xd2>
 8000b42:	2500      	movs	r5, #0
 8000b44:	2a2a      	cmp	r2, #42	@ 0x2a
 8000b46:	d1db      	bne.n	8000b00 <_vsnprintf+0x6c>
 8000b48:	cf20      	ldmia	r7!, {r5}
 8000b4a:	2d00      	cmp	r5, #0
 8000b4c:	da02      	bge.n	8000b54 <_vsnprintf+0xc0>
 8000b4e:	2202      	movs	r2, #2
 8000b50:	426d      	negs	r5, r5
 8000b52:	4313      	orrs	r3, r2
 8000b54:	910b      	str	r1, [sp, #44]	@ 0x2c
 8000b56:	e7d3      	b.n	8000b00 <_vsnprintf+0x6c>
 8000b58:	2202      	movs	r2, #2
 8000b5a:	4313      	orrs	r3, r2
 8000b5c:	e7e5      	b.n	8000b2a <_vsnprintf+0x96>
 8000b5e:	2204      	movs	r2, #4
 8000b60:	e7fb      	b.n	8000b5a <_vsnprintf+0xc6>
 8000b62:	4323      	orrs	r3, r4
 8000b64:	e7e1      	b.n	8000b2a <_vsnprintf+0x96>
 8000b66:	2210      	movs	r2, #16
 8000b68:	e7f7      	b.n	8000b5a <_vsnprintf+0xc6>
 8000b6a:	002a      	movs	r2, r5
 8000b6c:	4362      	muls	r2, r4
 8000b6e:	3a30      	subs	r2, #48	@ 0x30
 8000b70:	188d      	adds	r5, r1, r2
 8000b72:	900b      	str	r0, [sp, #44]	@ 0x2c
 8000b74:	9a0b      	ldr	r2, [sp, #44]	@ 0x2c
 8000b76:	7811      	ldrb	r1, [r2, #0]
 8000b78:	1c50      	adds	r0, r2, #1
 8000b7a:	000a      	movs	r2, r1
 8000b7c:	3a30      	subs	r2, #48	@ 0x30
 8000b7e:	2a09      	cmp	r2, #9
 8000b80:	d9f3      	bls.n	8000b6a <_vsnprintf+0xd6>
 8000b82:	e7bd      	b.n	8000b00 <_vsnprintf+0x6c>
 8000b84:	240a      	movs	r4, #10
 8000b86:	e7f5      	b.n	8000b74 <_vsnprintf+0xe0>
 8000b88:	4660      	mov	r0, ip
 8000b8a:	9a0c      	ldr	r2, [sp, #48]	@ 0x30
 8000b8c:	4342      	muls	r2, r0
 8000b8e:	3a30      	subs	r2, #48	@ 0x30
 8000b90:	188a      	adds	r2, r1, r2
 8000b92:	920c      	str	r2, [sp, #48]	@ 0x30
 8000b94:	0022      	movs	r2, r4
 8000b96:	7811      	ldrb	r1, [r2, #0]
 8000b98:	1c54      	adds	r4, r2, #1
 8000b9a:	0008      	movs	r0, r1
 8000b9c:	3830      	subs	r0, #48	@ 0x30
 8000b9e:	2809      	cmp	r0, #9
 8000ba0:	d9f2      	bls.n	8000b88 <_vsnprintf+0xf4>
 8000ba2:	920b      	str	r2, [sp, #44]	@ 0x2c
 8000ba4:	9a0b      	ldr	r2, [sp, #44]	@ 0x2c
 8000ba6:	990b      	ldr	r1, [sp, #44]	@ 0x2c
 8000ba8:	7812      	ldrb	r2, [r2, #0]
 8000baa:	3101      	adds	r1, #1
 8000bac:	2a6c      	cmp	r2, #108	@ 0x6c
 8000bae:	d02b      	beq.n	8000c08 <_vsnprintf+0x174>
 8000bb0:	d823      	bhi.n	8000bfa <_vsnprintf+0x166>
 8000bb2:	2a68      	cmp	r2, #104	@ 0x68
 8000bb4:	d032      	beq.n	8000c1c <_vsnprintf+0x188>
 8000bb6:	2a6a      	cmp	r2, #106	@ 0x6a
 8000bb8:	d039      	beq.n	8000c2e <_vsnprintf+0x19a>
 8000bba:	990b      	ldr	r1, [sp, #44]	@ 0x2c
 8000bbc:	780c      	ldrb	r4, [r1, #0]
 8000bbe:	1c4a      	adds	r2, r1, #1
 8000bc0:	920b      	str	r2, [sp, #44]	@ 0x2c
 8000bc2:	2c67      	cmp	r4, #103	@ 0x67
 8000bc4:	d86f      	bhi.n	8000ca6 <_vsnprintf+0x212>
 8000bc6:	2c57      	cmp	r4, #87	@ 0x57
 8000bc8:	d84d      	bhi.n	8000c66 <_vsnprintf+0x1d2>
 8000bca:	2c45      	cmp	r4, #69	@ 0x45
 8000bcc:	d069      	beq.n	8000ca2 <_vsnprintf+0x20e>
 8000bce:	d860      	bhi.n	8000c92 <_vsnprintf+0x1fe>
 8000bd0:	0032      	movs	r2, r6
 8000bd2:	0020      	movs	r0, r4
 8000bd4:	9b0d      	ldr	r3, [sp, #52]	@ 0x34
 8000bd6:	990f      	ldr	r1, [sp, #60]	@ 0x3c
 8000bd8:	9c0e      	ldr	r4, [sp, #56]	@ 0x38
 8000bda:	1c75      	adds	r5, r6, #1
 8000bdc:	47a0      	blx	r4
 8000bde:	002e      	movs	r6, r5
 8000be0:	e771      	b.n	8000ac6 <_vsnprintf+0x32>
 8000be2:	292a      	cmp	r1, #42	@ 0x2a
 8000be4:	d1dd      	bne.n	8000ba2 <_vsnprintf+0x10e>
 8000be6:	cf04      	ldmia	r7!, {r2}
 8000be8:	920c      	str	r2, [sp, #48]	@ 0x30
 8000bea:	43d2      	mvns	r2, r2
 8000bec:	990c      	ldr	r1, [sp, #48]	@ 0x30
 8000bee:	17d2      	asrs	r2, r2, #31
 8000bf0:	4011      	ands	r1, r2
 8000bf2:	9a0b      	ldr	r2, [sp, #44]	@ 0x2c
 8000bf4:	910c      	str	r1, [sp, #48]	@ 0x30
 8000bf6:	3202      	adds	r2, #2
 8000bf8:	e7d3      	b.n	8000ba2 <_vsnprintf+0x10e>
 8000bfa:	2a74      	cmp	r2, #116	@ 0x74
 8000bfc:	d001      	beq.n	8000c02 <_vsnprintf+0x16e>
 8000bfe:	2a7a      	cmp	r2, #122	@ 0x7a
 8000c00:	d1db      	bne.n	8000bba <_vsnprintf+0x126>
 8000c02:	2280      	movs	r2, #128	@ 0x80
 8000c04:	0052      	lsls	r2, r2, #1
 8000c06:	e00e      	b.n	8000c26 <_vsnprintf+0x192>
 8000c08:	9a0b      	ldr	r2, [sp, #44]	@ 0x2c
 8000c0a:	7852      	ldrb	r2, [r2, #1]
 8000c0c:	2a6c      	cmp	r2, #108	@ 0x6c
 8000c0e:	d1f8      	bne.n	8000c02 <_vsnprintf+0x16e>
 8000c10:	22c0      	movs	r2, #192	@ 0xc0
 8000c12:	0092      	lsls	r2, r2, #2
 8000c14:	990b      	ldr	r1, [sp, #44]	@ 0x2c
 8000c16:	4313      	orrs	r3, r2
 8000c18:	3102      	adds	r1, #2
 8000c1a:	e7cf      	b.n	8000bbc <_vsnprintf+0x128>
 8000c1c:	9a0b      	ldr	r2, [sp, #44]	@ 0x2c
 8000c1e:	7852      	ldrb	r2, [r2, #1]
 8000c20:	2a68      	cmp	r2, #104	@ 0x68
 8000c22:	d002      	beq.n	8000c2a <_vsnprintf+0x196>
 8000c24:	2280      	movs	r2, #128	@ 0x80
 8000c26:	4313      	orrs	r3, r2
 8000c28:	e7c8      	b.n	8000bbc <_vsnprintf+0x128>
 8000c2a:	22c0      	movs	r2, #192	@ 0xc0
 8000c2c:	e7f2      	b.n	8000c14 <_vsnprintf+0x180>
 8000c2e:	2280      	movs	r2, #128	@ 0x80
 8000c30:	0092      	lsls	r2, r2, #2
 8000c32:	e7f8      	b.n	8000c26 <_vsnprintf+0x192>
 8000c34:	280a      	cmp	r0, #10
 8000c36:	d100      	bne.n	8000c3a <_vsnprintf+0x1a6>
 8000c38:	e17c      	b.n	8000f34 <_vsnprintf+0x4a0>
 8000c3a:	2807      	cmp	r0, #7
 8000c3c:	d1c8      	bne.n	8000bd0 <_vsnprintf+0x13c>
 8000c3e:	2221      	movs	r2, #33	@ 0x21
 8000c40:	4313      	orrs	r3, r2
 8000c42:	9305      	str	r3, [sp, #20]
 8000c44:	2308      	movs	r3, #8
 8000c46:	9304      	str	r3, [sp, #16]
 8000c48:	9b0c      	ldr	r3, [sp, #48]	@ 0x30
 8000c4a:	0032      	movs	r2, r6
 8000c4c:	9303      	str	r3, [sp, #12]
 8000c4e:	2310      	movs	r3, #16
 8000c50:	9302      	str	r3, [sp, #8]
 8000c52:	9b12      	ldr	r3, [sp, #72]	@ 0x48
 8000c54:	990f      	ldr	r1, [sp, #60]	@ 0x3c
 8000c56:	9301      	str	r3, [sp, #4]
 8000c58:	cf08      	ldmia	r7!, {r3}
 8000c5a:	980e      	ldr	r0, [sp, #56]	@ 0x38
 8000c5c:	9300      	str	r3, [sp, #0]
 8000c5e:	9b0d      	ldr	r3, [sp, #52]	@ 0x34
 8000c60:	f7ff fb02 	bl	8000268 <_ntoa_long>
 8000c64:	e10b      	b.n	8000e7e <_vsnprintf+0x3ea>
 8000c66:	0020      	movs	r0, r4
 8000c68:	3858      	subs	r0, #88	@ 0x58
 8000c6a:	280f      	cmp	r0, #15
 8000c6c:	d8b0      	bhi.n	8000bd0 <_vsnprintf+0x13c>
 8000c6e:	f001 ffaf 	bl	8002bd0 <__gnu_thumb1_case_shi>
 8000c72:	ffaf0034 			@ <UNDEFINED> instruction: 0xffaf0034
 8000c76:	ffafffaf 			@ <UNDEFINED> instruction: 0xffafffaf
 8000c7a:	ffafffaf 			@ <UNDEFINED> instruction: 0xffafffaf
 8000c7e:	ffafffaf 			@ <UNDEFINED> instruction: 0xffafffaf
 8000c82:	ffafffaf 			@ <UNDEFINED> instruction: 0xffafffaf
 8000c86:	011e0034 	tsteq	lr, r4, lsr r0
 8000c8a:	01080034 	tsteq	r8, r4, lsr r0
 8000c8e:	010800f6 	strdeq	r0, [r8, -r6]
 8000c92:	2c46      	cmp	r4, #70	@ 0x46
 8000c94:	d100      	bne.n	8000c98 <_vsnprintf+0x204>
 8000c96:	e0e0      	b.n	8000e5a <_vsnprintf+0x3c6>
 8000c98:	2c47      	cmp	r4, #71	@ 0x47
 8000c9a:	d199      	bne.n	8000bd0 <_vsnprintf+0x13c>
 8000c9c:	2280      	movs	r2, #128	@ 0x80
 8000c9e:	0112      	lsls	r2, r2, #4
 8000ca0:	4313      	orrs	r3, r2
 8000ca2:	2220      	movs	r2, #32
 8000ca4:	e0f1      	b.n	8000e8a <_vsnprintf+0x3f6>
 8000ca6:	0020      	movs	r0, r4
 8000ca8:	3869      	subs	r0, #105	@ 0x69
 8000caa:	b2c0      	uxtb	r0, r0
 8000cac:	280f      	cmp	r0, #15
 8000cae:	d88f      	bhi.n	8000bd0 <_vsnprintf+0x13c>
 8000cb0:	2201      	movs	r2, #1
 8000cb2:	4927      	ldr	r1, [pc, #156]	@ (8000d50 <_vsnprintf+0x2bc>)
 8000cb4:	4082      	lsls	r2, r0
 8000cb6:	468c      	mov	ip, r1
 8000cb8:	4011      	ands	r1, r2
 8000cba:	9112      	str	r1, [sp, #72]	@ 0x48
 8000cbc:	4661      	mov	r1, ip
 8000cbe:	420a      	tst	r2, r1
 8000cc0:	d0b8      	beq.n	8000c34 <_vsnprintf+0x1a0>
 8000cc2:	2080      	movs	r0, #128	@ 0x80
 8000cc4:	00c0      	lsls	r0, r0, #3
 8000cc6:	2c78      	cmp	r4, #120	@ 0x78
 8000cc8:	d128      	bne.n	8000d1c <_vsnprintf+0x288>
 8000cca:	220d      	movs	r2, #13
 8000ccc:	4203      	tst	r3, r0
 8000cce:	d100      	bne.n	8000cd2 <_vsnprintf+0x23e>
 8000cd0:	220c      	movs	r2, #12
 8000cd2:	4393      	bics	r3, r2
 8000cd4:	001a      	movs	r2, r3
 8000cd6:	2110      	movs	r1, #16
 8000cd8:	e00a      	b.n	8000cf0 <_vsnprintf+0x25c>
 8000cda:	2180      	movs	r1, #128	@ 0x80
 8000cdc:	00c9      	lsls	r1, r1, #3
 8000cde:	2c62      	cmp	r4, #98	@ 0x62
 8000ce0:	d129      	bne.n	8000d36 <_vsnprintf+0x2a2>
 8000ce2:	220c      	movs	r2, #12
 8000ce4:	420b      	tst	r3, r1
 8000ce6:	d000      	beq.n	8000cea <_vsnprintf+0x256>
 8000ce8:	220d      	movs	r2, #13
 8000cea:	4393      	bics	r3, r2
 8000cec:	001a      	movs	r2, r3
 8000cee:	2102      	movs	r1, #2
 8000cf0:	2380      	movs	r3, #128	@ 0x80
 8000cf2:	0010      	movs	r0, r2
 8000cf4:	009b      	lsls	r3, r3, #2
 8000cf6:	4018      	ands	r0, r3
 8000cf8:	421a      	tst	r2, r3
 8000cfa:	d100      	bne.n	8000cfe <_vsnprintf+0x26a>
 8000cfc:	e092      	b.n	8000e24 <_vsnprintf+0x390>
 8000cfe:	3707      	adds	r7, #7
 8000d00:	003c      	movs	r4, r7
 8000d02:	3bfa      	subs	r3, #250	@ 0xfa
 8000d04:	3bff      	subs	r3, #255	@ 0xff
 8000d06:	439c      	bics	r4, r3
 8000d08:	9b0c      	ldr	r3, [sp, #48]	@ 0x30
 8000d0a:	9208      	str	r2, [sp, #32]
 8000d0c:	9306      	str	r3, [sp, #24]
 8000d0e:	2300      	movs	r3, #0
 8000d10:	9507      	str	r5, [sp, #28]
 8000d12:	9104      	str	r1, [sp, #16]
 8000d14:	9305      	str	r3, [sp, #20]
 8000d16:	9302      	str	r3, [sp, #8]
 8000d18:	cc0c      	ldmia	r4!, {r2, r3}
 8000d1a:	e058      	b.n	8000dce <_vsnprintf+0x33a>
 8000d1c:	2c6f      	cmp	r4, #111	@ 0x6f
 8000d1e:	d119      	bne.n	8000d54 <_vsnprintf+0x2c0>
 8000d20:	220c      	movs	r2, #12
 8000d22:	0019      	movs	r1, r3
 8000d24:	4391      	bics	r1, r2
 8000d26:	000a      	movs	r2, r1
 8000d28:	2108      	movs	r1, #8
 8000d2a:	4203      	tst	r3, r0
 8000d2c:	d0e0      	beq.n	8000cf0 <_vsnprintf+0x25c>
 8000d2e:	220d      	movs	r2, #13
 8000d30:	4393      	bics	r3, r2
 8000d32:	001a      	movs	r2, r3
 8000d34:	e7dc      	b.n	8000cf0 <_vsnprintf+0x25c>
 8000d36:	2c58      	cmp	r4, #88	@ 0x58
 8000d38:	d11b      	bne.n	8000d72 <_vsnprintf+0x2de>
 8000d3a:	2220      	movs	r2, #32
 8000d3c:	420b      	tst	r3, r1
 8000d3e:	d11f      	bne.n	8000d80 <_vsnprintf+0x2ec>
 8000d40:	210c      	movs	r1, #12
 8000d42:	438b      	bics	r3, r1
 8000d44:	431a      	orrs	r2, r3
 8000d46:	3104      	adds	r1, #4
 8000d48:	e7d2      	b.n	8000cf0 <_vsnprintf+0x25c>
 8000d4a:	46c0      	nop			@ (mov r8, r8)
 8000d4c:	080000c1 	stmdaeq	r0, {r0, r6, r7}
 8000d50:	00009041 	andeq	r9, r0, r1, asr #32
 8000d54:	2210      	movs	r2, #16
 8000d56:	0019      	movs	r1, r3
 8000d58:	4391      	bics	r1, r2
 8000d5a:	000a      	movs	r2, r1
 8000d5c:	2c69      	cmp	r4, #105	@ 0x69
 8000d5e:	d014      	beq.n	8000d8a <_vsnprintf+0x2f6>
 8000d60:	221c      	movs	r2, #28
 8000d62:	0019      	movs	r1, r3
 8000d64:	4391      	bics	r1, r2
 8000d66:	000a      	movs	r2, r1
 8000d68:	210a      	movs	r1, #10
 8000d6a:	4203      	tst	r3, r0
 8000d6c:	d0c0      	beq.n	8000cf0 <_vsnprintf+0x25c>
 8000d6e:	221d      	movs	r2, #29
 8000d70:	e7de      	b.n	8000d30 <_vsnprintf+0x29c>
 8000d72:	2210      	movs	r2, #16
 8000d74:	420b      	tst	r3, r1
 8000d76:	d000      	beq.n	8000d7a <_vsnprintf+0x2e6>
 8000d78:	2211      	movs	r2, #17
 8000d7a:	4393      	bics	r3, r2
 8000d7c:	001a      	movs	r2, r3
 8000d7e:	e006      	b.n	8000d8e <_vsnprintf+0x2fa>
 8000d80:	210d      	movs	r1, #13
 8000d82:	438b      	bics	r3, r1
 8000d84:	431a      	orrs	r2, r3
 8000d86:	3103      	adds	r1, #3
 8000d88:	e7b2      	b.n	8000cf0 <_vsnprintf+0x25c>
 8000d8a:	4203      	tst	r3, r0
 8000d8c:	d1f4      	bne.n	8000d78 <_vsnprintf+0x2e4>
 8000d8e:	0593      	lsls	r3, r2, #22
 8000d90:	d528      	bpl.n	8000de4 <_vsnprintf+0x350>
 8000d92:	2307      	movs	r3, #7
 8000d94:	200a      	movs	r0, #10
 8000d96:	2100      	movs	r1, #0
 8000d98:	3707      	adds	r7, #7
 8000d9a:	439f      	bics	r7, r3
 8000d9c:	003c      	movs	r4, r7
 8000d9e:	cf88      	ldmia	r7, {r3, r7}
 8000da0:	9208      	str	r2, [sp, #32]
 8000da2:	9a0c      	ldr	r2, [sp, #48]	@ 0x30
 8000da4:	9004      	str	r0, [sp, #16]
 8000da6:	9105      	str	r1, [sp, #20]
 8000da8:	9206      	str	r2, [sp, #24]
 8000daa:	0ffa      	lsrs	r2, r7, #31
 8000dac:	9202      	str	r2, [sp, #8]
 8000dae:	17fa      	asrs	r2, r7, #31
 8000db0:	9211      	str	r2, [sp, #68]	@ 0x44
 8000db2:	9210      	str	r2, [sp, #64]	@ 0x40
 8000db4:	405a      	eors	r2, r3
 8000db6:	9b11      	ldr	r3, [sp, #68]	@ 0x44
 8000db8:	9214      	str	r2, [sp, #80]	@ 0x50
 8000dba:	407b      	eors	r3, r7
 8000dbc:	9315      	str	r3, [sp, #84]	@ 0x54
 8000dbe:	9a14      	ldr	r2, [sp, #80]	@ 0x50
 8000dc0:	9b15      	ldr	r3, [sp, #84]	@ 0x54
 8000dc2:	9810      	ldr	r0, [sp, #64]	@ 0x40
 8000dc4:	9911      	ldr	r1, [sp, #68]	@ 0x44
 8000dc6:	1a12      	subs	r2, r2, r0
 8000dc8:	418b      	sbcs	r3, r1
 8000dca:	3408      	adds	r4, #8
 8000dcc:	9507      	str	r5, [sp, #28]
 8000dce:	9200      	str	r2, [sp, #0]
 8000dd0:	9301      	str	r3, [sp, #4]
 8000dd2:	990f      	ldr	r1, [sp, #60]	@ 0x3c
 8000dd4:	0032      	movs	r2, r6
 8000dd6:	9b0d      	ldr	r3, [sp, #52]	@ 0x34
 8000dd8:	980e      	ldr	r0, [sp, #56]	@ 0x38
 8000dda:	f7ff fa8e 	bl	80002fa <_ntoa_long_long>
 8000dde:	0006      	movs	r6, r0
 8000de0:	0027      	movs	r7, r4
 8000de2:	e670      	b.n	8000ac6 <_vsnprintf+0x32>
 8000de4:	1d3c      	adds	r4, r7, #4
 8000de6:	05d3      	lsls	r3, r2, #23
 8000de8:	d513      	bpl.n	8000e12 <_vsnprintf+0x37e>
 8000dea:	683b      	ldr	r3, [r7, #0]
 8000dec:	9205      	str	r2, [sp, #20]
 8000dee:	9a0c      	ldr	r2, [sp, #48]	@ 0x30
 8000df0:	9504      	str	r5, [sp, #16]
 8000df2:	9203      	str	r2, [sp, #12]
 8000df4:	220a      	movs	r2, #10
 8000df6:	9202      	str	r2, [sp, #8]
 8000df8:	0fda      	lsrs	r2, r3, #31
 8000dfa:	9201      	str	r2, [sp, #4]
 8000dfc:	17da      	asrs	r2, r3, #31
 8000dfe:	189b      	adds	r3, r3, r2
 8000e00:	4053      	eors	r3, r2
 8000e02:	9300      	str	r3, [sp, #0]
 8000e04:	0032      	movs	r2, r6
 8000e06:	9b0d      	ldr	r3, [sp, #52]	@ 0x34
 8000e08:	990f      	ldr	r1, [sp, #60]	@ 0x3c
 8000e0a:	980e      	ldr	r0, [sp, #56]	@ 0x38
 8000e0c:	f7ff fa2c 	bl	8000268 <_ntoa_long>
 8000e10:	e7e5      	b.n	8000dde <_vsnprintf+0x34a>
 8000e12:	683b      	ldr	r3, [r7, #0]
 8000e14:	0651      	lsls	r1, r2, #25
 8000e16:	d501      	bpl.n	8000e1c <_vsnprintf+0x388>
 8000e18:	b2db      	uxtb	r3, r3
 8000e1a:	e7e7      	b.n	8000dec <_vsnprintf+0x358>
 8000e1c:	0611      	lsls	r1, r2, #24
 8000e1e:	d5e5      	bpl.n	8000dec <_vsnprintf+0x358>
 8000e20:	b21b      	sxth	r3, r3
 8000e22:	e7e3      	b.n	8000dec <_vsnprintf+0x358>
 8000e24:	1d3c      	adds	r4, r7, #4
 8000e26:	05d3      	lsls	r3, r2, #23
 8000e28:	d507      	bpl.n	8000e3a <_vsnprintf+0x3a6>
 8000e2a:	9b0c      	ldr	r3, [sp, #48]	@ 0x30
 8000e2c:	9205      	str	r2, [sp, #20]
 8000e2e:	9504      	str	r5, [sp, #16]
 8000e30:	9303      	str	r3, [sp, #12]
 8000e32:	9102      	str	r1, [sp, #8]
 8000e34:	9001      	str	r0, [sp, #4]
 8000e36:	683b      	ldr	r3, [r7, #0]
 8000e38:	e7e3      	b.n	8000e02 <_vsnprintf+0x36e>
 8000e3a:	683b      	ldr	r3, [r7, #0]
 8000e3c:	0650      	lsls	r0, r2, #25
 8000e3e:	d508      	bpl.n	8000e52 <_vsnprintf+0x3be>
 8000e40:	b2db      	uxtb	r3, r3
 8000e42:	9205      	str	r2, [sp, #20]
 8000e44:	9a0c      	ldr	r2, [sp, #48]	@ 0x30
 8000e46:	9504      	str	r5, [sp, #16]
 8000e48:	9203      	str	r2, [sp, #12]
 8000e4a:	2200      	movs	r2, #0
 8000e4c:	9102      	str	r1, [sp, #8]
 8000e4e:	9201      	str	r2, [sp, #4]
 8000e50:	e7d7      	b.n	8000e02 <_vsnprintf+0x36e>
 8000e52:	0610      	lsls	r0, r2, #24
 8000e54:	d5f5      	bpl.n	8000e42 <_vsnprintf+0x3ae>
 8000e56:	b29b      	uxth	r3, r3
 8000e58:	e7f3      	b.n	8000e42 <_vsnprintf+0x3ae>
 8000e5a:	2220      	movs	r2, #32
 8000e5c:	4313      	orrs	r3, r2
 8000e5e:	2207      	movs	r2, #7
 8000e60:	9304      	str	r3, [sp, #16]
 8000e62:	9b0c      	ldr	r3, [sp, #48]	@ 0x30
 8000e64:	3707      	adds	r7, #7
 8000e66:	4397      	bics	r7, r2
 8000e68:	9503      	str	r5, [sp, #12]
 8000e6a:	9302      	str	r3, [sp, #8]
 8000e6c:	cf0c      	ldmia	r7!, {r2, r3}
 8000e6e:	990f      	ldr	r1, [sp, #60]	@ 0x3c
 8000e70:	9200      	str	r2, [sp, #0]
 8000e72:	9301      	str	r3, [sp, #4]
 8000e74:	980e      	ldr	r0, [sp, #56]	@ 0x38
 8000e76:	0032      	movs	r2, r6
 8000e78:	9b0d      	ldr	r3, [sp, #52]	@ 0x34
 8000e7a:	f7ff fc77 	bl	800076c <_ftoa>
 8000e7e:	0006      	movs	r6, r0
 8000e80:	e621      	b.n	8000ac6 <_vsnprintf+0x32>
 8000e82:	2c67      	cmp	r4, #103	@ 0x67
 8000e84:	d102      	bne.n	8000e8c <_vsnprintf+0x3f8>
 8000e86:	2280      	movs	r2, #128	@ 0x80
 8000e88:	0112      	lsls	r2, r2, #4
 8000e8a:	4313      	orrs	r3, r2
 8000e8c:	2207      	movs	r2, #7
 8000e8e:	9304      	str	r3, [sp, #16]
 8000e90:	9b0c      	ldr	r3, [sp, #48]	@ 0x30
 8000e92:	3707      	adds	r7, #7
 8000e94:	4397      	bics	r7, r2
 8000e96:	9503      	str	r5, [sp, #12]
 8000e98:	9302      	str	r3, [sp, #8]
 8000e9a:	cf0c      	ldmia	r7!, {r2, r3}
 8000e9c:	990f      	ldr	r1, [sp, #60]	@ 0x3c
 8000e9e:	9200      	str	r2, [sp, #0]
 8000ea0:	9301      	str	r3, [sp, #4]
 8000ea2:	980e      	ldr	r0, [sp, #56]	@ 0x38
 8000ea4:	0032      	movs	r2, r6
 8000ea6:	9b0d      	ldr	r3, [sp, #52]	@ 0x34
 8000ea8:	f7ff fa82 	bl	80003b0 <_etoa>
 8000eac:	e7e7      	b.n	8000e7e <_vsnprintf+0x3ea>
 8000eae:	2202      	movs	r2, #2
 8000eb0:	0019      	movs	r1, r3
 8000eb2:	4011      	ands	r1, r2
 8000eb4:	2401      	movs	r4, #1
 8000eb6:	9112      	str	r1, [sp, #72]	@ 0x48
 8000eb8:	4213      	tst	r3, r2
 8000eba:	d115      	bne.n	8000ee8 <_vsnprintf+0x454>
 8000ebc:	0032      	movs	r2, r6
 8000ebe:	e005      	b.n	8000ecc <_vsnprintf+0x438>
 8000ec0:	2020      	movs	r0, #32
 8000ec2:	9b0d      	ldr	r3, [sp, #52]	@ 0x34
 8000ec4:	990f      	ldr	r1, [sp, #60]	@ 0x3c
 8000ec6:	9c0e      	ldr	r4, [sp, #56]	@ 0x38
 8000ec8:	47a0      	blx	r4
 8000eca:	9a0c      	ldr	r2, [sp, #48]	@ 0x30
 8000ecc:	1c53      	adds	r3, r2, #1
 8000ece:	930c      	str	r3, [sp, #48]	@ 0x30
 8000ed0:	1b9b      	subs	r3, r3, r6
 8000ed2:	42ab      	cmp	r3, r5
 8000ed4:	d3f4      	bcc.n	8000ec0 <_vsnprintf+0x42c>
 8000ed6:	2300      	movs	r3, #0
 8000ed8:	429d      	cmp	r5, r3
 8000eda:	d000      	beq.n	8000ede <_vsnprintf+0x44a>
 8000edc:	1e6b      	subs	r3, r5, #1
 8000ede:	2402      	movs	r4, #2
 8000ee0:	18f6      	adds	r6, r6, r3
 8000ee2:	2d00      	cmp	r5, #0
 8000ee4:	d000      	beq.n	8000ee8 <_vsnprintf+0x454>
 8000ee6:	1c6c      	adds	r4, r5, #1
 8000ee8:	cf01      	ldmia	r7!, {r0}
 8000eea:	1c73      	adds	r3, r6, #1
 8000eec:	0032      	movs	r2, r6
 8000eee:	930c      	str	r3, [sp, #48]	@ 0x30
 8000ef0:	990f      	ldr	r1, [sp, #60]	@ 0x3c
 8000ef2:	9b0d      	ldr	r3, [sp, #52]	@ 0x34
 8000ef4:	9e0e      	ldr	r6, [sp, #56]	@ 0x38
 8000ef6:	b2c0      	uxtb	r0, r0
 8000ef8:	47b0      	blx	r6
 8000efa:	9b12      	ldr	r3, [sp, #72]	@ 0x48
 8000efc:	2b00      	cmp	r3, #0
 8000efe:	d017      	beq.n	8000f30 <_vsnprintf+0x49c>
 8000f00:	9a0c      	ldr	r2, [sp, #48]	@ 0x30
 8000f02:	9412      	str	r4, [sp, #72]	@ 0x48
 8000f04:	e00a      	b.n	8000f1c <_vsnprintf+0x488>
 8000f06:	1c53      	adds	r3, r2, #1
 8000f08:	9313      	str	r3, [sp, #76]	@ 0x4c
 8000f0a:	2020      	movs	r0, #32
 8000f0c:	9b0d      	ldr	r3, [sp, #52]	@ 0x34
 8000f0e:	990f      	ldr	r1, [sp, #60]	@ 0x3c
 8000f10:	9e0e      	ldr	r6, [sp, #56]	@ 0x38
 8000f12:	47b0      	blx	r6
 8000f14:	9b12      	ldr	r3, [sp, #72]	@ 0x48
 8000f16:	9a13      	ldr	r2, [sp, #76]	@ 0x4c
 8000f18:	3301      	adds	r3, #1
 8000f1a:	9312      	str	r3, [sp, #72]	@ 0x48
 8000f1c:	9b12      	ldr	r3, [sp, #72]	@ 0x48
 8000f1e:	42ab      	cmp	r3, r5
 8000f20:	d3f1      	bcc.n	8000f06 <_vsnprintf+0x472>
 8000f22:	2300      	movs	r3, #0
 8000f24:	42a5      	cmp	r5, r4
 8000f26:	d300      	bcc.n	8000f2a <_vsnprintf+0x496>
 8000f28:	1b2b      	subs	r3, r5, r4
 8000f2a:	9a0c      	ldr	r2, [sp, #48]	@ 0x30
 8000f2c:	18d3      	adds	r3, r2, r3
 8000f2e:	930c      	str	r3, [sp, #48]	@ 0x30
 8000f30:	9e0c      	ldr	r6, [sp, #48]	@ 0x30
 8000f32:	e5c8      	b.n	8000ac6 <_vsnprintf+0x32>
 8000f34:	0039      	movs	r1, r7
 8000f36:	c904      	ldmia	r1!, {r2}
 8000f38:	9213      	str	r2, [sp, #76]	@ 0x4c
 8000f3a:	9a0c      	ldr	r2, [sp, #48]	@ 0x30
 8000f3c:	9116      	str	r1, [sp, #88]	@ 0x58
 8000f3e:	2a00      	cmp	r2, #0
 8000f40:	d101      	bne.n	8000f46 <_vsnprintf+0x4b2>
 8000f42:	2201      	movs	r2, #1
 8000f44:	4252      	negs	r2, r2
 8000f46:	9913      	ldr	r1, [sp, #76]	@ 0x4c
 8000f48:	000c      	movs	r4, r1
 8000f4a:	188a      	adds	r2, r1, r2
 8000f4c:	7821      	ldrb	r1, [r4, #0]
 8000f4e:	2900      	cmp	r1, #0
 8000f50:	d001      	beq.n	8000f56 <_vsnprintf+0x4c2>
 8000f52:	42a2      	cmp	r2, r4
 8000f54:	d114      	bne.n	8000f80 <_vsnprintf+0x4ec>
 8000f56:	9a13      	ldr	r2, [sp, #76]	@ 0x4c
 8000f58:	0019      	movs	r1, r3
 8000f5a:	1aa4      	subs	r4, r4, r2
 8000f5c:	2280      	movs	r2, #128	@ 0x80
 8000f5e:	00d2      	lsls	r2, r2, #3
 8000f60:	4011      	ands	r1, r2
 8000f62:	9117      	str	r1, [sp, #92]	@ 0x5c
 8000f64:	4213      	tst	r3, r2
 8000f66:	d003      	beq.n	8000f70 <_vsnprintf+0x4dc>
 8000f68:	9a0c      	ldr	r2, [sp, #48]	@ 0x30
 8000f6a:	4294      	cmp	r4, r2
 8000f6c:	d900      	bls.n	8000f70 <_vsnprintf+0x4dc>
 8000f6e:	0014      	movs	r4, r2
 8000f70:	2202      	movs	r2, #2
 8000f72:	0019      	movs	r1, r3
 8000f74:	4011      	ands	r1, r2
 8000f76:	9118      	str	r1, [sp, #96]	@ 0x60
 8000f78:	4213      	tst	r3, r2
 8000f7a:	d116      	bne.n	8000faa <_vsnprintf+0x516>
 8000f7c:	0032      	movs	r2, r6
 8000f7e:	e009      	b.n	8000f94 <_vsnprintf+0x500>
 8000f80:	3401      	adds	r4, #1
 8000f82:	e7e3      	b.n	8000f4c <_vsnprintf+0x4b8>
 8000f84:	1c53      	adds	r3, r2, #1
 8000f86:	9312      	str	r3, [sp, #72]	@ 0x48
 8000f88:	2020      	movs	r0, #32
 8000f8a:	9b0d      	ldr	r3, [sp, #52]	@ 0x34
 8000f8c:	990f      	ldr	r1, [sp, #60]	@ 0x3c
 8000f8e:	9f0e      	ldr	r7, [sp, #56]	@ 0x38
 8000f90:	47b8      	blx	r7
 8000f92:	9a12      	ldr	r2, [sp, #72]	@ 0x48
 8000f94:	1ba3      	subs	r3, r4, r6
 8000f96:	18d3      	adds	r3, r2, r3
 8000f98:	429d      	cmp	r5, r3
 8000f9a:	d8f3      	bhi.n	8000f84 <_vsnprintf+0x4f0>
 8000f9c:	2300      	movs	r3, #0
 8000f9e:	42a5      	cmp	r5, r4
 8000fa0:	d300      	bcc.n	8000fa4 <_vsnprintf+0x510>
 8000fa2:	1b2b      	subs	r3, r5, r4
 8000fa4:	3401      	adds	r4, #1
 8000fa6:	18f6      	adds	r6, r6, r3
 8000fa8:	191c      	adds	r4, r3, r4
 8000faa:	9612      	str	r6, [sp, #72]	@ 0x48
 8000fac:	e00a      	b.n	8000fc4 <_vsnprintf+0x530>
 8000fae:	930c      	str	r3, [sp, #48]	@ 0x30
 8000fb0:	9b12      	ldr	r3, [sp, #72]	@ 0x48
 8000fb2:	9a12      	ldr	r2, [sp, #72]	@ 0x48
 8000fb4:	3301      	adds	r3, #1
 8000fb6:	9319      	str	r3, [sp, #100]	@ 0x64
 8000fb8:	990f      	ldr	r1, [sp, #60]	@ 0x3c
 8000fba:	9b0d      	ldr	r3, [sp, #52]	@ 0x34
 8000fbc:	9f0e      	ldr	r7, [sp, #56]	@ 0x38
 8000fbe:	47b8      	blx	r7
 8000fc0:	9b19      	ldr	r3, [sp, #100]	@ 0x64
 8000fc2:	9312      	str	r3, [sp, #72]	@ 0x48
 8000fc4:	9b13      	ldr	r3, [sp, #76]	@ 0x4c
 8000fc6:	9a12      	ldr	r2, [sp, #72]	@ 0x48
 8000fc8:	1b9b      	subs	r3, r3, r6
 8000fca:	5c98      	ldrb	r0, [r3, r2]
 8000fcc:	2800      	cmp	r0, #0
 8000fce:	d007      	beq.n	8000fe0 <_vsnprintf+0x54c>
 8000fd0:	9b17      	ldr	r3, [sp, #92]	@ 0x5c
 8000fd2:	2b00      	cmp	r3, #0
 8000fd4:	d0ec      	beq.n	8000fb0 <_vsnprintf+0x51c>
 8000fd6:	9b0c      	ldr	r3, [sp, #48]	@ 0x30
 8000fd8:	9a0c      	ldr	r2, [sp, #48]	@ 0x30
 8000fda:	3b01      	subs	r3, #1
 8000fdc:	2a00      	cmp	r2, #0
 8000fde:	d1e6      	bne.n	8000fae <_vsnprintf+0x51a>
 8000fe0:	9b18      	ldr	r3, [sp, #96]	@ 0x60
 8000fe2:	2b00      	cmp	r3, #0
 8000fe4:	d014      	beq.n	8001010 <_vsnprintf+0x57c>
 8000fe6:	9a12      	ldr	r2, [sp, #72]	@ 0x48
 8000fe8:	e006      	b.n	8000ff8 <_vsnprintf+0x564>
 8000fea:	1c56      	adds	r6, r2, #1
 8000fec:	2020      	movs	r0, #32
 8000fee:	9b0d      	ldr	r3, [sp, #52]	@ 0x34
 8000ff0:	990f      	ldr	r1, [sp, #60]	@ 0x3c
 8000ff2:	9f0e      	ldr	r7, [sp, #56]	@ 0x38
 8000ff4:	47b8      	blx	r7
 8000ff6:	0032      	movs	r2, r6
 8000ff8:	9b12      	ldr	r3, [sp, #72]	@ 0x48
 8000ffa:	1ae3      	subs	r3, r4, r3
 8000ffc:	189b      	adds	r3, r3, r2
 8000ffe:	429d      	cmp	r5, r3
 8001000:	d8f3      	bhi.n	8000fea <_vsnprintf+0x556>
 8001002:	2300      	movs	r3, #0
 8001004:	42a5      	cmp	r5, r4
 8001006:	d300      	bcc.n	800100a <_vsnprintf+0x576>
 8001008:	1b2b      	subs	r3, r5, r4
 800100a:	9a12      	ldr	r2, [sp, #72]	@ 0x48
 800100c:	18d3      	adds	r3, r2, r3
 800100e:	9312      	str	r3, [sp, #72]	@ 0x48
 8001010:	9f16      	ldr	r7, [sp, #88]	@ 0x58
 8001012:	9e12      	ldr	r6, [sp, #72]	@ 0x48
 8001014:	e557      	b.n	8000ac6 <_vsnprintf+0x32>
 8001016:	46c0      	nop			@ (mov r8, r8)

08001018 <printf_>:
 8001018:	b40f      	push	{r0, r1, r2, r3}
 800101a:	b51f      	push	{r0, r1, r2, r3, r4, lr}
 800101c:	2201      	movs	r2, #1
 800101e:	a906      	add	r1, sp, #24
 8001020:	c908      	ldmia	r1!, {r3}
 8001022:	4252      	negs	r2, r2
 8001024:	9103      	str	r1, [sp, #12]
 8001026:	9100      	str	r1, [sp, #0]
 8001028:	4803      	ldr	r0, [pc, #12]	@ (8001038 <printf_+0x20>)
 800102a:	a902      	add	r1, sp, #8
 800102c:	f7ff fd32 	bl	8000a94 <_vsnprintf>
 8001030:	b005      	add	sp, #20
 8001032:	bc08      	pop	{r3}
 8001034:	b004      	add	sp, #16
 8001036:	4718      	bx	r3
 8001038:	08000a89 	stmdaeq	r0, {r0, r3, r7, r9, fp}

0800103c <vprintf_>:
 800103c:	b51f      	push	{r0, r1, r2, r3, r4, lr}
 800103e:	2201      	movs	r2, #1
 8001040:	4c04      	ldr	r4, [pc, #16]	@ (8001054 <vprintf_+0x18>)
 8001042:	0003      	movs	r3, r0
 8001044:	9100      	str	r1, [sp, #0]
 8001046:	0020      	movs	r0, r4
 8001048:	4252      	negs	r2, r2
 800104a:	a903      	add	r1, sp, #12
 800104c:	f7ff fd22 	bl	8000a94 <_vsnprintf>
 8001050:	b004      	add	sp, #16
 8001052:	bd10      	pop	{r4, pc}
 8001054:	08000a89 	stmdaeq	r0, {r0, r3, r7, r9, fp}

08001058 <main>:
 8001058:	b5f0      	push	{r4, r5, r6, r7, lr}
 800105a:	24fa      	movs	r4, #250	@ 0xfa
 800105c:	b08b      	sub	sp, #44	@ 0x2c
 800105e:	f000 fc5f 	bl	8001920 <system_rccInit>
 8001062:	2500      	movs	r5, #0
 8001064:	f000 fc70 	bl	8001948 <system_systickInit>
 8001068:	00a4      	lsls	r4, r4, #2
 800106a:	f000 fd1f 	bl	8001aac <uart1if_setup>
 800106e:	2800      	cmp	r0, #0
 8001070:	d054      	beq.n	800111c <main+0xc4>
 8001072:	24fa      	movs	r4, #250	@ 0xfa
 8001074:	2500      	movs	r5, #0
 8001076:	00a4      	lsls	r4, r4, #2
 8001078:	f000 feb8 	bl	8001dec <gpioif_setup>
 800107c:	2800      	cmp	r0, #0
 800107e:	d052      	beq.n	8001126 <main+0xce>
 8001080:	24fa      	movs	r4, #250	@ 0xfa
 8001082:	2500      	movs	r5, #0
 8001084:	00a4      	lsls	r4, r4, #2
 8001086:	f000 fdb1 	bl	8001bec <canif_setup>
 800108a:	2800      	cmp	r0, #0
 800108c:	d050      	beq.n	8001130 <main+0xd8>
 800108e:	f000 fbab 	bl	80017e8 <crcif_setup>
 8001092:	f000 fa8d 	bl	80015b0 <man_setup>
 8001096:	48c6      	ldr	r0, [pc, #792]	@ (80013b0 <main+0x358>)
 8001098:	f000 fcd8 	bl	8001a4c <log_pSuccess>
 800109c:	48c5      	ldr	r0, [pc, #788]	@ (80013b4 <main+0x35c>)
 800109e:	f000 fcbd 	bl	8001a1c <log_pInfo>
 80010a2:	2180      	movs	r1, #128	@ 0x80
 80010a4:	48c4      	ldr	r0, [pc, #784]	@ (80013b8 <main+0x360>)
 80010a6:	01c9      	lsls	r1, r1, #7
 80010a8:	f001 fa48 	bl	800253c <gpio_clear>
 80010ac:	2102      	movs	r1, #2
 80010ae:	48c3      	ldr	r0, [pc, #780]	@ (80013bc <main+0x364>)
 80010b0:	f001 fa44 	bl	800253c <gpio_clear>
 80010b4:	2108      	movs	r1, #8
 80010b6:	48c1      	ldr	r0, [pc, #772]	@ (80013bc <main+0x364>)
 80010b8:	f001 fa40 	bl	800253c <gpio_clear>
 80010bc:	48c0      	ldr	r0, [pc, #768]	@ (80013c0 <main+0x368>)
 80010be:	f000 fcad 	bl	8001a1c <log_pInfo>
 80010c2:	4bc0      	ldr	r3, [pc, #768]	@ (80013c4 <main+0x36c>)
 80010c4:	22fa      	movs	r2, #250	@ 0xfa
 80010c6:	9302      	str	r3, [sp, #8]
 80010c8:	2301      	movs	r3, #1
 80010ca:	9802      	ldr	r0, [sp, #8]
 80010cc:	9300      	str	r3, [sp, #0]
 80010ce:	0092      	lsls	r2, r2, #2
 80010d0:	2300      	movs	r3, #0
 80010d2:	f000 fc5f 	bl	8001994 <timeout_setup>
 80010d6:	2300      	movs	r3, #0
 80010d8:	4dbb      	ldr	r5, [pc, #748]	@ (80013c8 <main+0x370>)
 80010da:	9300      	str	r3, [sp, #0]
 80010dc:	0028      	movs	r0, r5
 80010de:	2300      	movs	r3, #0
 80010e0:	4aba      	ldr	r2, [pc, #744]	@ (80013cc <main+0x374>)
 80010e2:	f000 fc57 	bl	8001994 <timeout_setup>
 80010e6:	48ba      	ldr	r0, [pc, #744]	@ (80013d0 <main+0x378>)
 80010e8:	f000 fc98 	bl	8001a1c <log_pInfo>
 80010ec:	4cb9      	ldr	r4, [pc, #740]	@ (80013d4 <main+0x37c>)
 80010ee:	7823      	ldrb	r3, [r4, #0]
 80010f0:	2b07      	cmp	r3, #7
 80010f2:	d009      	beq.n	8001108 <main+0xb0>
 80010f4:	0028      	movs	r0, r5
 80010f6:	f000 fc61 	bl	80019bc <timeout_hasElapsed>
 80010fa:	1e03      	subs	r3, r0, #0
 80010fc:	d01d      	beq.n	800113a <main+0xe2>
 80010fe:	48b6      	ldr	r0, [pc, #728]	@ (80013d8 <main+0x380>)
 8001100:	f000 fc8c 	bl	8001a1c <log_pInfo>
 8001104:	2307      	movs	r3, #7
 8001106:	7023      	strb	r3, [r4, #0]
 8001108:	4cb4      	ldr	r4, [pc, #720]	@ (80013dc <main+0x384>)
 800110a:	4bb5      	ldr	r3, [pc, #724]	@ (80013e0 <main+0x388>)
 800110c:	6822      	ldr	r2, [r4, #0]
 800110e:	429a      	cmp	r2, r3
 8001110:	d000      	beq.n	8001114 <main+0xbc>
 8001112:	e1e7      	b.n	80014e4 <main+0x48c>
 8001114:	48b3      	ldr	r0, [pc, #716]	@ (80013e4 <main+0x38c>)
 8001116:	f000 fcb1 	bl	8001a7c <log_pError>
 800111a:	e7fe      	b.n	800111a <main+0xc2>
 800111c:	0020      	movs	r0, r4
 800111e:	0029      	movs	r1, r5
 8001120:	f000 fc28 	bl	8001974 <system_delayMs>
 8001124:	e7a1      	b.n	800106a <main+0x12>
 8001126:	0020      	movs	r0, r4
 8001128:	0029      	movs	r1, r5
 800112a:	f000 fc23 	bl	8001974 <system_delayMs>
 800112e:	e7a3      	b.n	8001078 <main+0x20>
 8001130:	0020      	movs	r0, r4
 8001132:	0029      	movs	r1, r5
 8001134:	f000 fc1e 	bl	8001974 <system_delayMs>
 8001138:	e7a5      	b.n	8001086 <main+0x2e>
 800113a:	7820      	ldrb	r0, [r4, #0]
 800113c:	2806      	cmp	r0, #6
 800113e:	d900      	bls.n	8001142 <main+0xea>
 8001140:	e1ce      	b.n	80014e0 <main+0x488>
 8001142:	f001 fd4f 	bl	8002be4 <__gnu_thumb1_case_uhi>
 8001146:	003c0007 	eorseq	r0, ip, r7
 800114a:	00a0006b 	adceq	r0, r0, fp, rrx
 800114e:	00ff00d0 	ldrsbteq	r0, [pc], #0
 8001152:	f0000122 			@ <UNDEFINED> instruction: 0xf0000122
 8001156:	fafa 2800 			@ <UNDEFINED> instruction: 0xfafa2800
 800115a:	d01f      	beq.n	800119c <main+0x144>
 800115c:	4ea2      	ldr	r6, [pc, #648]	@ (80013e8 <main+0x390>)
 800115e:	0030      	movs	r0, r6
 8001160:	f000 fadc 	bl	800171c <man_read>
 8001164:	21ca      	movs	r1, #202	@ 0xca
 8001166:	0030      	movs	r0, r6
 8001168:	f000 fafd 	bl	8001766 <man_isBLPacketSingle>
 800116c:	2800      	cmp	r0, #0
 800116e:	d022      	beq.n	80011b6 <main+0x15e>
 8001170:	489e      	ldr	r0, [pc, #632]	@ (80013ec <main+0x394>)
 8001172:	f000 fc53 	bl	8001a1c <log_pInfo>
 8001176:	4e9e      	ldr	r6, [pc, #632]	@ (80013f0 <main+0x398>)
 8001178:	21bd      	movs	r1, #189	@ 0xbd
 800117a:	0030      	movs	r0, r6
 800117c:	f000 faee 	bl	800175c <man_createBLPacketSingle>
 8001180:	0030      	movs	r0, r6
 8001182:	f000 fa25 	bl	80015d0 <man_write>
 8001186:	489b      	ldr	r0, [pc, #620]	@ (80013f4 <main+0x39c>)
 8001188:	f000 fc48 	bl	8001a1c <log_pInfo>
 800118c:	2301      	movs	r3, #1
 800118e:	489a      	ldr	r0, [pc, #616]	@ (80013f8 <main+0x3a0>)
 8001190:	7023      	strb	r3, [r4, #0]
 8001192:	f000 fc43 	bl	8001a1c <log_pInfo>
 8001196:	0028      	movs	r0, r5
 8001198:	f000 fc32 	bl	8001a00 <timeout_reset>
 800119c:	9802      	ldr	r0, [sp, #8]
 800119e:	f000 fc0d 	bl	80019bc <timeout_hasElapsed>
 80011a2:	2800      	cmp	r0, #0
 80011a4:	d004      	beq.n	80011b0 <main+0x158>
 80011a6:	2204      	movs	r2, #4
 80011a8:	2101      	movs	r1, #1
 80011aa:	4894      	ldr	r0, [pc, #592]	@ (80013fc <main+0x3a4>)
 80011ac:	f000 fd9e 	bl	8001cec <canif_sendVehMsg>
 80011b0:	f000 fa24 	bl	80015fc <man_update>
 80011b4:	e79a      	b.n	80010ec <main+0x94>
 80011b6:	4892      	ldr	r0, [pc, #584]	@ (8001400 <main+0x3a8>)
 80011b8:	f000 fc60 	bl	8001a7c <log_pError>
 80011bc:	e7ee      	b.n	800119c <main+0x144>
 80011be:	f000 fac5 	bl	800174c <man_packetAvailable>
 80011c2:	2800      	cmp	r0, #0
 80011c4:	d0f4      	beq.n	80011b0 <main+0x158>
 80011c6:	4e88      	ldr	r6, [pc, #544]	@ (80013e8 <main+0x390>)
 80011c8:	0030      	movs	r0, r6
 80011ca:	f000 faa7 	bl	800171c <man_read>
 80011ce:	2136      	movs	r1, #54	@ 0x36
 80011d0:	0030      	movs	r0, r6
 80011d2:	4a8c      	ldr	r2, [pc, #560]	@ (8001404 <main+0x3ac>)
 80011d4:	f000 faec 	bl	80017b0 <man_isBLPacketData>
 80011d8:	2800      	cmp	r0, #0
 80011da:	d017      	beq.n	800120c <main+0x1b4>
 80011dc:	488a      	ldr	r0, [pc, #552]	@ (8001408 <main+0x3b0>)
 80011de:	f000 fc1d 	bl	8001a1c <log_pInfo>
 80011e2:	4e83      	ldr	r6, [pc, #524]	@ (80013f0 <main+0x398>)
 80011e4:	2142      	movs	r1, #66	@ 0x42
 80011e6:	4a87      	ldr	r2, [pc, #540]	@ (8001404 <main+0x3ac>)
 80011e8:	0030      	movs	r0, r6
 80011ea:	f000 fac8 	bl	800177e <man_createBLPacketData>
 80011ee:	0030      	movs	r0, r6
 80011f0:	f000 f9ee 	bl	80015d0 <man_write>
 80011f4:	4885      	ldr	r0, [pc, #532]	@ (800140c <main+0x3b4>)
 80011f6:	f000 fc11 	bl	8001a1c <log_pInfo>
 80011fa:	2302      	movs	r3, #2
 80011fc:	4884      	ldr	r0, [pc, #528]	@ (8001410 <main+0x3b8>)
 80011fe:	7023      	strb	r3, [r4, #0]
 8001200:	f000 fc0c 	bl	8001a1c <log_pInfo>
 8001204:	0028      	movs	r0, r5
 8001206:	f000 fbfb 	bl	8001a00 <timeout_reset>
 800120a:	e7d1      	b.n	80011b0 <main+0x158>
 800120c:	4881      	ldr	r0, [pc, #516]	@ (8001414 <main+0x3bc>)
 800120e:	f000 fc35 	bl	8001a7c <log_pError>
 8001212:	2307      	movs	r3, #7
 8001214:	7023      	strb	r3, [r4, #0]
 8001216:	f000 f9e9 	bl	80015ec <man_sendNack>
 800121a:	e7c9      	b.n	80011b0 <main+0x158>
 800121c:	f000 fa96 	bl	800174c <man_packetAvailable>
 8001220:	2800      	cmp	r0, #0
 8001222:	d0c5      	beq.n	80011b0 <main+0x158>
 8001224:	4e70      	ldr	r6, [pc, #448]	@ (80013e8 <main+0x390>)
 8001226:	0030      	movs	r0, r6
 8001228:	f000 fa78 	bl	800171c <man_read>
 800122c:	78f3      	ldrb	r3, [r6, #3]
 800122e:	78b2      	ldrb	r2, [r6, #2]
 8001230:	021b      	lsls	r3, r3, #8
 8001232:	4313      	orrs	r3, r2
 8001234:	7932      	ldrb	r2, [r6, #4]
 8001236:	4f78      	ldr	r7, [pc, #480]	@ (8001418 <main+0x3c0>)
 8001238:	0412      	lsls	r2, r2, #16
 800123a:	431a      	orrs	r2, r3
 800123c:	7973      	ldrb	r3, [r6, #5]
 800123e:	2139      	movs	r1, #57	@ 0x39
 8001240:	061b      	lsls	r3, r3, #24
 8001242:	4313      	orrs	r3, r2
 8001244:	0030      	movs	r0, r6
 8001246:	2200      	movs	r2, #0
 8001248:	603b      	str	r3, [r7, #0]
 800124a:	f000 fab1 	bl	80017b0 <man_isBLPacketData>
 800124e:	2800      	cmp	r0, #0
 8001250:	d017      	beq.n	8001282 <main+0x22a>
 8001252:	23c0      	movs	r3, #192	@ 0xc0
 8001254:	6839      	ldr	r1, [r7, #0]
 8001256:	025b      	lsls	r3, r3, #9
 8001258:	4299      	cmp	r1, r3
 800125a:	d812      	bhi.n	8001282 <main+0x22a>
 800125c:	486f      	ldr	r0, [pc, #444]	@ (800141c <main+0x3c4>)
 800125e:	f000 fbdd 	bl	8001a1c <log_pInfo>
 8001262:	4e63      	ldr	r6, [pc, #396]	@ (80013f0 <main+0x398>)
 8001264:	2173      	movs	r1, #115	@ 0x73
 8001266:	683a      	ldr	r2, [r7, #0]
 8001268:	0030      	movs	r0, r6
 800126a:	f000 fa88 	bl	800177e <man_createBLPacketData>
 800126e:	0030      	movs	r0, r6
 8001270:	f000 f9ae 	bl	80015d0 <man_write>
 8001274:	486a      	ldr	r0, [pc, #424]	@ (8001420 <main+0x3c8>)
 8001276:	f000 fbd1 	bl	8001a1c <log_pInfo>
 800127a:	2303      	movs	r3, #3
 800127c:	4869      	ldr	r0, [pc, #420]	@ (8001424 <main+0x3cc>)
 800127e:	7023      	strb	r3, [r4, #0]
 8001280:	e7be      	b.n	8001200 <main+0x1a8>
 8001282:	4869      	ldr	r0, [pc, #420]	@ (8001428 <main+0x3d0>)
 8001284:	e7c3      	b.n	800120e <main+0x1b6>
 8001286:	f000 fa61 	bl	800174c <man_packetAvailable>
 800128a:	2800      	cmp	r0, #0
 800128c:	d090      	beq.n	80011b0 <main+0x158>
 800128e:	4e56      	ldr	r6, [pc, #344]	@ (80013e8 <main+0x390>)
 8001290:	0030      	movs	r0, r6
 8001292:	f000 fa43 	bl	800171c <man_read>
 8001296:	2200      	movs	r2, #0
 8001298:	2153      	movs	r1, #83	@ 0x53
 800129a:	0030      	movs	r0, r6
 800129c:	f000 fa88 	bl	80017b0 <man_isBLPacketData>
 80012a0:	2800      	cmp	r0, #0
 80012a2:	d01e      	beq.n	80012e2 <main+0x28a>
 80012a4:	78f2      	ldrb	r2, [r6, #3]
 80012a6:	78b3      	ldrb	r3, [r6, #2]
 80012a8:	0212      	lsls	r2, r2, #8
 80012aa:	431a      	orrs	r2, r3
 80012ac:	7933      	ldrb	r3, [r6, #4]
 80012ae:	7971      	ldrb	r1, [r6, #5]
 80012b0:	041b      	lsls	r3, r3, #16
 80012b2:	4313      	orrs	r3, r2
 80012b4:	4f5d      	ldr	r7, [pc, #372]	@ (800142c <main+0x3d4>)
 80012b6:	0609      	lsls	r1, r1, #24
 80012b8:	4319      	orrs	r1, r3
 80012ba:	485d      	ldr	r0, [pc, #372]	@ (8001430 <main+0x3d8>)
 80012bc:	6039      	str	r1, [r7, #0]
 80012be:	f000 fbad 	bl	8001a1c <log_pInfo>
 80012c2:	4e4b      	ldr	r6, [pc, #300]	@ (80013f0 <main+0x398>)
 80012c4:	2164      	movs	r1, #100	@ 0x64
 80012c6:	683a      	ldr	r2, [r7, #0]
 80012c8:	0030      	movs	r0, r6
 80012ca:	f000 fa58 	bl	800177e <man_createBLPacketData>
 80012ce:	0030      	movs	r0, r6
 80012d0:	f000 f97e 	bl	80015d0 <man_write>
 80012d4:	4857      	ldr	r0, [pc, #348]	@ (8001434 <main+0x3dc>)
 80012d6:	f000 fba1 	bl	8001a1c <log_pInfo>
 80012da:	2304      	movs	r3, #4
 80012dc:	4856      	ldr	r0, [pc, #344]	@ (8001438 <main+0x3e0>)
 80012de:	7023      	strb	r3, [r4, #0]
 80012e0:	e78e      	b.n	8001200 <main+0x1a8>
 80012e2:	4856      	ldr	r0, [pc, #344]	@ (800143c <main+0x3e4>)
 80012e4:	e793      	b.n	800120e <main+0x1b6>
 80012e6:	f000 fa31 	bl	800174c <man_packetAvailable>
 80012ea:	2800      	cmp	r0, #0
 80012ec:	d100      	bne.n	80012f0 <main+0x298>
 80012ee:	e75f      	b.n	80011b0 <main+0x158>
 80012f0:	4e3d      	ldr	r6, [pc, #244]	@ (80013e8 <main+0x390>)
 80012f2:	0030      	movs	r0, r6
 80012f4:	f000 fa12 	bl	800171c <man_read>
 80012f8:	2200      	movs	r2, #0
 80012fa:	2159      	movs	r1, #89	@ 0x59
 80012fc:	0030      	movs	r0, r6
 80012fe:	f000 fa57 	bl	80017b0 <man_isBLPacketData>
 8001302:	2800      	cmp	r0, #0
 8001304:	d0ed      	beq.n	80012e2 <main+0x28a>
 8001306:	78f2      	ldrb	r2, [r6, #3]
 8001308:	78b3      	ldrb	r3, [r6, #2]
 800130a:	0212      	lsls	r2, r2, #8
 800130c:	431a      	orrs	r2, r3
 800130e:	7933      	ldrb	r3, [r6, #4]
 8001310:	7971      	ldrb	r1, [r6, #5]
 8001312:	041b      	lsls	r3, r3, #16
 8001314:	4313      	orrs	r3, r2
 8001316:	4f4a      	ldr	r7, [pc, #296]	@ (8001440 <main+0x3e8>)
 8001318:	0609      	lsls	r1, r1, #24
 800131a:	4319      	orrs	r1, r3
 800131c:	4849      	ldr	r0, [pc, #292]	@ (8001444 <main+0x3ec>)
 800131e:	6039      	str	r1, [r7, #0]
 8001320:	f000 fb7c 	bl	8001a1c <log_pInfo>
 8001324:	4e32      	ldr	r6, [pc, #200]	@ (80013f0 <main+0x398>)
 8001326:	2186      	movs	r1, #134	@ 0x86
 8001328:	683a      	ldr	r2, [r7, #0]
 800132a:	0030      	movs	r0, r6
 800132c:	f000 fa27 	bl	800177e <man_createBLPacketData>
 8001330:	0030      	movs	r0, r6
 8001332:	f000 f94d 	bl	80015d0 <man_write>
 8001336:	4844      	ldr	r0, [pc, #272]	@ (8001448 <main+0x3f0>)
 8001338:	f000 fb70 	bl	8001a1c <log_pInfo>
 800133c:	2305      	movs	r3, #5
 800133e:	4843      	ldr	r0, [pc, #268]	@ (800144c <main+0x3f4>)
 8001340:	7023      	strb	r3, [r4, #0]
 8001342:	e75d      	b.n	8001200 <main+0x1a8>
 8001344:	f000 fdfa 	bl	8001f3c <flashif_eraseAppMetaData>
 8001348:	f000 fde4 	bl	8001f14 <flashif_eraseMainApplication>
 800134c:	4b40      	ldr	r3, [pc, #256]	@ (8001450 <main+0x3f8>)
 800134e:	a805      	add	r0, sp, #20
 8001350:	9305      	str	r3, [sp, #20]
 8001352:	4b2c      	ldr	r3, [pc, #176]	@ (8001404 <main+0x3ac>)
 8001354:	9306      	str	r3, [sp, #24]
 8001356:	4b3a      	ldr	r3, [pc, #232]	@ (8001440 <main+0x3e8>)
 8001358:	681b      	ldr	r3, [r3, #0]
 800135a:	9307      	str	r3, [sp, #28]
 800135c:	4b2e      	ldr	r3, [pc, #184]	@ (8001418 <main+0x3c0>)
 800135e:	681b      	ldr	r3, [r3, #0]
 8001360:	9308      	str	r3, [sp, #32]
 8001362:	4b32      	ldr	r3, [pc, #200]	@ (800142c <main+0x3d4>)
 8001364:	681b      	ldr	r3, [r3, #0]
 8001366:	9309      	str	r3, [sp, #36]	@ 0x24
 8001368:	f000 fdfa 	bl	8001f60 <flashif_writeAppMetaData>
 800136c:	2306      	movs	r3, #6
 800136e:	2029      	movs	r0, #41	@ 0x29
 8001370:	7023      	strb	r3, [r4, #0]
 8001372:	f000 fd2b 	bl	8001dcc <canif_clearQueue>
 8001376:	4c1e      	ldr	r4, [pc, #120]	@ (80013f0 <main+0x398>)
 8001378:	21c0      	movs	r1, #192	@ 0xc0
 800137a:	0020      	movs	r0, r4
 800137c:	f000 f9ee 	bl	800175c <man_createBLPacketSingle>
 8001380:	0020      	movs	r0, r4
 8001382:	f000 f925 	bl	80015d0 <man_write>
 8001386:	4833      	ldr	r0, [pc, #204]	@ (8001454 <main+0x3fc>)
 8001388:	e73a      	b.n	8001200 <main+0x1a8>
 800138a:	f000 f9df 	bl	800174c <man_packetAvailable>
 800138e:	2800      	cmp	r0, #0
 8001390:	d100      	bne.n	8001394 <main+0x33c>
 8001392:	e70d      	b.n	80011b0 <main+0x158>
 8001394:	4e14      	ldr	r6, [pc, #80]	@ (80013e8 <main+0x390>)
 8001396:	0030      	movs	r0, r6
 8001398:	f000 f9c0 	bl	800171c <man_read>
 800139c:	2200      	movs	r2, #0
 800139e:	2188      	movs	r1, #136	@ 0x88
 80013a0:	0030      	movs	r0, r6
 80013a2:	f000 fa05 	bl	80017b0 <man_isBLPacketData>
 80013a6:	2800      	cmp	r0, #0
 80013a8:	d158      	bne.n	800145c <main+0x404>
 80013aa:	482b      	ldr	r0, [pc, #172]	@ (8001458 <main+0x400>)
 80013ac:	e72f      	b.n	800120e <main+0x1b6>
 80013ae:	46c0      	nop			@ (mov r8, r8)
 80013b0:	08004f60 	stmdaeq	r0, {r5, r6, r8, r9, sl, fp, lr}
 80013b4:	08004f70 	stmdaeq	r0, {r4, r5, r6, r8, r9, sl, fp, lr}
 80013b8:	48000400 	stmdami	r0, {sl}
 80013bc:	48000800 	stmdami	r0, {fp}
 80013c0:	08004f9c 	stmdaeq	r0, {r2, r3, r4, r7, r8, r9, sl, fp, lr}
 80013c4:	20000010 	andcs	r0, r0, r0, lsl r0
 80013c8:	20000028 	andcs	r0, r0, r8, lsr #32
 80013cc:	00000bb8 			@ <UNDEFINED> instruction: 0x00000bb8
 80013d0:	08004fcc 	stmdaeq	r0, {r2, r3, r6, r7, r8, r9, sl, fp, lr}
 80013d4:	20000050 	andcs	r0, r0, r0, asr r0
 80013d8:	08004fe0 	stmdaeq	r0, {r5, r6, r7, r8, r9, sl, fp, lr}
 80013dc:	08007800 	stmdaeq	r0, {fp, ip, sp, lr}
 80013e0:	deadbeef 	cdple	14, 10, cr11, cr13, cr15, {7}
 80013e4:	0800524f 	stmdaeq	r0, {r0, r1, r2, r3, r6, r9, ip, lr}
 80013e8:	20000040 	andcs	r0, r0, r0, asr #32
 80013ec:	08004ff3 	stmdaeq	r0, {r0, r1, r4, r5, r6, r7, r8, r9, sl, fp, lr}
 80013f0:	20000048 	andcs	r0, r0, r8, asr #32
 80013f4:	08005007 	stmdaeq	r0, {r0, r1, r2, ip, lr}
 80013f8:	08005014 	stmdaeq	r0, {r2, r4, ip, lr}
 80013fc:	20000000 	andcs	r0, r0, r0
 8001400:	08005026 	stmdaeq	r0, {r1, r2, r5, ip, lr}
 8001404:	beef6969 	vfmslt.f16	s13, s30, s19	@ <UNPREDICTABLE>
 8001408:	0800504b 	stmdaeq	r0, {r0, r1, r3, r6, ip, lr}
 800140c:	08005061 	stmdaeq	r0, {r0, r5, r6, ip, lr}
 8001410:	08005070 	stmdaeq	r0, {r4, r5, r6, ip, lr}
 8001414:	08005082 	stmdaeq	r0, {r1, r7, ip, lr}
 8001418:	20000060 	andcs	r0, r0, r0, rrx
 800141c:	080050a9 	stmdaeq	r0, {r0, r3, r5, r7, ip, lr}
 8001420:	080050c9 	stmdaeq	r0, {r0, r3, r6, r7, ip, lr}
 8001424:	080050d8 	stmdaeq	r0, {r3, r4, r6, r7, ip, lr}
 8001428:	080050eb 	stmdaeq	r0, {r0, r1, r3, r5, r6, r7, ip, lr}
 800142c:	20000058 	andcs	r0, r0, r8, asr r0
 8001430:	08005113 	stmdaeq	r0, {r0, r1, r4, r8, ip, lr}
 8001434:	08005130 	stmdaeq	r0, {r4, r5, r8, ip, lr}
 8001438:	08005140 	stmdaeq	r0, {r6, r8, ip, lr}
 800143c:	08005153 	stmdaeq	r0, {r0, r1, r4, r6, r8, ip, lr}
 8001440:	20000054 	andcs	r0, r0, r4, asr r0
 8001444:	0800517b 	stmdaeq	r0, {r0, r1, r3, r4, r5, r6, r8, ip, lr}
 8001448:	0800519c 	stmdaeq	r0, {r2, r3, r4, r7, r8, ip, lr}
 800144c:	080051ac 	stmdaeq	r0, {r2, r3, r5, r7, r8, ip, lr}
 8001450:	6c0ffee9 	stcvs	14, cr15, [pc], {233}	@ 0xe9
 8001454:	080051c2 	stmdaeq	r0, {r1, r6, r7, r8, ip, lr}
 8001458:	080051dc 	stmdaeq	r0, {r2, r3, r4, r6, r7, r8, ip, lr}
 800145c:	78f2      	ldrb	r2, [r6, #3]
 800145e:	78b3      	ldrb	r3, [r6, #2]
 8001460:	0212      	lsls	r2, r2, #8
 8001462:	431a      	orrs	r2, r3
 8001464:	7933      	ldrb	r3, [r6, #4]
 8001466:	7977      	ldrb	r7, [r6, #5]
 8001468:	041b      	lsls	r3, r3, #16
 800146a:	4313      	orrs	r3, r2
 800146c:	2029      	movs	r0, #41	@ 0x29
 800146e:	063f      	lsls	r7, r7, #24
 8001470:	431f      	orrs	r7, r3
 8001472:	f000 fc9d 	bl	8001db0 <canif_getQueuePointer>
 8001476:	0039      	movs	r1, r7
 8001478:	9003      	str	r0, [sp, #12]
 800147a:	4834      	ldr	r0, [pc, #208]	@ (800154c <main+0x4f4>)
 800147c:	f000 face 	bl	8001a1c <log_pInfo>
 8001480:	4e33      	ldr	r6, [pc, #204]	@ (8001550 <main+0x4f8>)
 8001482:	4b34      	ldr	r3, [pc, #208]	@ (8001554 <main+0x4fc>)
 8001484:	6830      	ldr	r0, [r6, #0]
 8001486:	003a      	movs	r2, r7
 8001488:	9903      	ldr	r1, [sp, #12]
 800148a:	18c0      	adds	r0, r0, r3
 800148c:	f000 fd8e 	bl	8001fac <flashif_write>
 8001490:	2800      	cmp	r0, #0
 8001492:	d100      	bne.n	8001496 <main+0x43e>
 8001494:	e6bd      	b.n	8001212 <main+0x1ba>
 8001496:	6831      	ldr	r1, [r6, #0]
 8001498:	482f      	ldr	r0, [pc, #188]	@ (8001558 <main+0x500>)
 800149a:	1879      	adds	r1, r7, r1
 800149c:	4f2f      	ldr	r7, [pc, #188]	@ (800155c <main+0x504>)
 800149e:	6031      	str	r1, [r6, #0]
 80014a0:	683a      	ldr	r2, [r7, #0]
 80014a2:	f000 fabb 	bl	8001a1c <log_pInfo>
 80014a6:	6832      	ldr	r2, [r6, #0]
 80014a8:	683b      	ldr	r3, [r7, #0]
 80014aa:	4e2d      	ldr	r6, [pc, #180]	@ (8001560 <main+0x508>)
 80014ac:	429a      	cmp	r2, r3
 80014ae:	d30c      	bcc.n	80014ca <main+0x472>
 80014b0:	2169      	movs	r1, #105	@ 0x69
 80014b2:	0030      	movs	r0, r6
 80014b4:	f000 f952 	bl	800175c <man_createBLPacketSingle>
 80014b8:	0030      	movs	r0, r6
 80014ba:	f000 f889 	bl	80015d0 <man_write>
 80014be:	4829      	ldr	r0, [pc, #164]	@ (8001564 <main+0x50c>)
 80014c0:	f000 faac 	bl	8001a1c <log_pInfo>
 80014c4:	2307      	movs	r3, #7
 80014c6:	7023      	strb	r3, [r4, #0]
 80014c8:	e69c      	b.n	8001204 <main+0x1ac>
 80014ca:	2029      	movs	r0, #41	@ 0x29
 80014cc:	f000 fc7e 	bl	8001dcc <canif_clearQueue>
 80014d0:	0030      	movs	r0, r6
 80014d2:	21c0      	movs	r1, #192	@ 0xc0
 80014d4:	f000 f942 	bl	800175c <man_createBLPacketSingle>
 80014d8:	0030      	movs	r0, r6
 80014da:	f000 f879 	bl	80015d0 <man_write>
 80014de:	e691      	b.n	8001204 <main+0x1ac>
 80014e0:	7023      	strb	r3, [r4, #0]
 80014e2:	e665      	b.n	80011b0 <main+0x158>
 80014e4:	6862      	ldr	r2, [r4, #4]
 80014e6:	4b20      	ldr	r3, [pc, #128]	@ (8001568 <main+0x510>)
 80014e8:	429a      	cmp	r2, r3
 80014ea:	d004      	beq.n	80014f6 <main+0x49e>
 80014ec:	6861      	ldr	r1, [r4, #4]
 80014ee:	481f      	ldr	r0, [pc, #124]	@ (800156c <main+0x514>)
 80014f0:	f000 fac4 	bl	8001a7c <log_pError>
 80014f4:	e611      	b.n	800111a <main+0xc2>
 80014f6:	4d17      	ldr	r5, [pc, #92]	@ (8001554 <main+0x4fc>)
 80014f8:	68e1      	ldr	r1, [r4, #12]
 80014fa:	0028      	movs	r0, r5
 80014fc:	f000 f9a4 	bl	8001848 <crcif_compute32>
 8001500:	6923      	ldr	r3, [r4, #16]
 8001502:	0002      	movs	r2, r0
 8001504:	4298      	cmp	r0, r3
 8001506:	d004      	beq.n	8001512 <main+0x4ba>
 8001508:	6921      	ldr	r1, [r4, #16]
 800150a:	4819      	ldr	r0, [pc, #100]	@ (8001570 <main+0x518>)
 800150c:	f000 fab6 	bl	8001a7c <log_pError>
 8001510:	e603      	b.n	800111a <main+0xc2>
 8001512:	4818      	ldr	r0, [pc, #96]	@ (8001574 <main+0x51c>)
 8001514:	f000 fa9a 	bl	8001a4c <log_pSuccess>
 8001518:	68a1      	ldr	r1, [r4, #8]
 800151a:	4817      	ldr	r0, [pc, #92]	@ (8001578 <main+0x520>)
 800151c:	f000 fa96 	bl	8001a4c <log_pSuccess>
 8001520:	4816      	ldr	r0, [pc, #88]	@ (800157c <main+0x524>)
 8001522:	f000 fa93 	bl	8001a4c <log_pSuccess>
 8001526:	f000 f967 	bl	80017f8 <crcif_destruct>
 800152a:	f000 faf5 	bl	8001b18 <uart1if_destruct>
 800152e:	f000 fa19 	bl	8001964 <system_systickDeinit>
 8001532:	2180      	movs	r1, #128	@ 0x80
 8001534:	4812      	ldr	r0, [pc, #72]	@ (8001580 <main+0x528>)
 8001536:	01c9      	lsls	r1, r1, #7
 8001538:	f000 fffe 	bl	8002538 <gpio_set>
 800153c:	682b      	ldr	r3, [r5, #0]
 800153e:	f383 8808 	msr	MSP, r3
 8001542:	4b10      	ldr	r3, [pc, #64]	@ (8001584 <main+0x52c>)
 8001544:	681b      	ldr	r3, [r3, #0]
 8001546:	4798      	blx	r3
 8001548:	e5e7      	b.n	800111a <main+0xc2>
 800154a:	46c0      	nop			@ (mov r8, r8)
 800154c:	08005205 	stmdaeq	r0, {r0, r2, r9, ip, lr}
 8001550:	2000005c 	andcs	r0, r0, ip, asr r0
 8001554:	08008000 	stmdaeq	r0, {pc}
 8001558:	08005229 	stmdaeq	r0, {r0, r3, r5, r9, ip, lr}
 800155c:	20000060 	andcs	r0, r0, r0, rrx
 8001560:	20000048 	andcs	r0, r0, r8, asr #32
 8001564:	0800523d 	stmdaeq	r0, {r0, r2, r3, r4, r5, r9, ip, lr}
 8001568:	beef6969 	vfmslt.f16	s13, s30, s19	@ <UNPREDICTABLE>
 800156c:	0800525f 	stmdaeq	r0, {r0, r1, r2, r3, r4, r6, r9, ip, lr}
 8001570:	08005277 	stmdaeq	r0, {r0, r1, r2, r4, r5, r6, r9, ip, lr}
 8001574:	080052a5 	stmdaeq	r0, {r0, r2, r5, r7, r9, ip, lr}
 8001578:	080052bc 	stmdaeq	r0, {r2, r3, r4, r5, r7, r9, ip, lr}
 800157c:	080052d0 	stmdaeq	r0, {r4, r6, r7, r9, ip, lr}
 8001580:	48000400 	stmdami	r0, {sl}
 8001584:	08008004 	stmdaeq	r0, {r2, pc}

08001588 <createSingleBytePacket>:
 8001588:	b570      	push	{r4, r5, r6, lr}
 800158a:	0004      	movs	r4, r0
 800158c:	000d      	movs	r5, r1
 800158e:	0016      	movs	r6, r2
 8001590:	21ff      	movs	r1, #255	@ 0xff
 8001592:	2206      	movs	r2, #6
 8001594:	3002      	adds	r0, #2
 8001596:	f001 fa75 	bl	8002a84 <memset>
 800159a:	2204      	movs	r2, #4
 800159c:	4332      	orrs	r2, r6
 800159e:	7065      	strb	r5, [r4, #1]
 80015a0:	2107      	movs	r1, #7
 80015a2:	0020      	movs	r0, r4
 80015a4:	7022      	strb	r2, [r4, #0]
 80015a6:	f000 f92f 	bl	8001808 <crcif_compute8>
 80015aa:	71e0      	strb	r0, [r4, #7]
 80015ac:	bd70      	pop	{r4, r5, r6, pc}
	...

080015b0 <man_setup>:
 80015b0:	b510      	push	{r4, lr}
 80015b2:	2202      	movs	r2, #2
 80015b4:	2167      	movs	r1, #103	@ 0x67
 80015b6:	4804      	ldr	r0, [pc, #16]	@ (80015c8 <man_setup+0x18>)
 80015b8:	f7ff ffe6 	bl	8001588 <createSingleBytePacket>
 80015bc:	2202      	movs	r2, #2
 80015be:	21de      	movs	r1, #222	@ 0xde
 80015c0:	4802      	ldr	r0, [pc, #8]	@ (80015cc <man_setup+0x1c>)
 80015c2:	f7ff ffe1 	bl	8001588 <createSingleBytePacket>
 80015c6:	bd10      	pop	{r4, pc}
 80015c8:	200000b7 	strhcs	r0, [r0], -r7
 80015cc:	200000af 	andcs	r0, r0, pc, lsr #1

080015d0 <man_write>:
 80015d0:	b510      	push	{r4, lr}
 80015d2:	0004      	movs	r4, r0
 80015d4:	2228      	movs	r2, #40	@ 0x28
 80015d6:	2108      	movs	r1, #8
 80015d8:	f000 fb96 	bl	8001d08 <canif_sendData>
 80015dc:	2208      	movs	r2, #8
 80015de:	0021      	movs	r1, r4
 80015e0:	4801      	ldr	r0, [pc, #4]	@ (80015e8 <man_write+0x18>)
 80015e2:	f001 faa3 	bl	8002b2c <memcpy>
 80015e6:	bd10      	pop	{r4, pc}
 80015e8:	200000a7 	andcs	r0, r0, r7, lsr #1

080015ec <man_sendNack>:
 80015ec:	b510      	push	{r4, lr}
 80015ee:	4802      	ldr	r0, [pc, #8]	@ (80015f8 <man_sendNack+0xc>)
 80015f0:	f7ff ffee 	bl	80015d0 <man_write>
 80015f4:	bd10      	pop	{r4, pc}
 80015f6:	46c0      	nop			@ (mov r8, r8)
 80015f8:	200000af 	andcs	r0, r0, pc, lsr #1

080015fc <man_update>:
 80015fc:	b5f7      	push	{r0, r1, r2, r4, r5, r6, r7, lr}
 80015fe:	f000 fbb3 	bl	8001d68 <canif_getRxDataReady>
 8001602:	2800      	cmp	r0, #0
 8001604:	d100      	bne.n	8001608 <man_update+0xc>
 8001606:	bdf7      	pop	{r0, r1, r2, r4, r5, r6, r7, pc}
 8001608:	4c36      	ldr	r4, [pc, #216]	@ (80016e4 <man_update+0xe8>)
 800160a:	7823      	ldrb	r3, [r4, #0]
 800160c:	2b01      	cmp	r3, #1
 800160e:	d00b      	beq.n	8001628 <man_update+0x2c>
 8001610:	2b02      	cmp	r3, #2
 8001612:	d019      	beq.n	8001648 <man_update+0x4c>
 8001614:	4834      	ldr	r0, [pc, #208]	@ (80016e8 <man_update+0xec>)
 8001616:	2b00      	cmp	r3, #0
 8001618:	d160      	bne.n	80016dc <man_update+0xe0>
 800161a:	2028      	movs	r0, #40	@ 0x28
 800161c:	4933      	ldr	r1, [pc, #204]	@ (80016ec <man_update+0xf0>)
 800161e:	f000 fbad 	bl	8001d7c <canif_getRxData>
 8001622:	2301      	movs	r3, #1
 8001624:	7023      	strb	r3, [r4, #0]
 8001626:	e7ea      	b.n	80015fe <man_update+0x2>
 8001628:	4d31      	ldr	r5, [pc, #196]	@ (80016f0 <man_update+0xf4>)
 800162a:	4b30      	ldr	r3, [pc, #192]	@ (80016ec <man_update+0xf0>)
 800162c:	7829      	ldrb	r1, [r5, #0]
 800162e:	2028      	movs	r0, #40	@ 0x28
 8001630:	3101      	adds	r1, #1
 8001632:	7029      	strb	r1, [r5, #0]
 8001634:	18c9      	adds	r1, r1, r3
 8001636:	f000 fba1 	bl	8001d7c <canif_getRxData>
 800163a:	782b      	ldrb	r3, [r5, #0]
 800163c:	2b05      	cmp	r3, #5
 800163e:	d9de      	bls.n	80015fe <man_update+0x2>
 8001640:	2300      	movs	r3, #0
 8001642:	702b      	strb	r3, [r5, #0]
 8001644:	3302      	adds	r3, #2
 8001646:	e7ed      	b.n	8001624 <man_update+0x28>
 8001648:	492a      	ldr	r1, [pc, #168]	@ (80016f4 <man_update+0xf8>)
 800164a:	2028      	movs	r0, #40	@ 0x28
 800164c:	f000 fb96 	bl	8001d7c <canif_getRxData>
 8001650:	4d26      	ldr	r5, [pc, #152]	@ (80016ec <man_update+0xf0>)
 8001652:	2107      	movs	r1, #7
 8001654:	0028      	movs	r0, r5
 8001656:	f000 f8d7 	bl	8001808 <crcif_compute8>
 800165a:	79e9      	ldrb	r1, [r5, #7]
 800165c:	0002      	movs	r2, r0
 800165e:	4281      	cmp	r1, r0
 8001660:	d006      	beq.n	8001670 <man_update+0x74>
 8001662:	4825      	ldr	r0, [pc, #148]	@ (80016f8 <man_update+0xfc>)
 8001664:	f000 fa0a 	bl	8001a7c <log_pError>
 8001668:	4824      	ldr	r0, [pc, #144]	@ (80016fc <man_update+0x100>)
 800166a:	f7ff ffb1 	bl	80015d0 <man_write>
 800166e:	e020      	b.n	80016b2 <man_update+0xb6>
 8001670:	2103      	movs	r1, #3
 8001672:	782b      	ldrb	r3, [r5, #0]
 8001674:	4019      	ands	r1, r3
 8001676:	2901      	cmp	r1, #1
 8001678:	d003      	beq.n	8001682 <man_update+0x86>
 800167a:	2902      	cmp	r1, #2
 800167c:	d01b      	beq.n	80016b6 <man_update+0xba>
 800167e:	4820      	ldr	r0, [pc, #128]	@ (8001700 <man_update+0x104>)
 8001680:	e029      	b.n	80016d6 <man_update+0xda>
 8001682:	4b20      	ldr	r3, [pc, #128]	@ (8001704 <man_update+0x108>)
 8001684:	4820      	ldr	r0, [pc, #128]	@ (8001708 <man_update+0x10c>)
 8001686:	9301      	str	r3, [sp, #4]
 8001688:	781b      	ldrb	r3, [r3, #0]
 800168a:	9300      	str	r3, [sp, #0]
 800168c:	2b08      	cmp	r3, #8
 800168e:	d025      	beq.n	80016dc <man_update+0xe0>
 8001690:	4f1e      	ldr	r7, [pc, #120]	@ (800170c <man_update+0x110>)
 8001692:	4b1f      	ldr	r3, [pc, #124]	@ (8001710 <man_update+0x114>)
 8001694:	783e      	ldrb	r6, [r7, #0]
 8001696:	2208      	movs	r2, #8
 8001698:	00f0      	lsls	r0, r6, #3
 800169a:	18c0      	adds	r0, r0, r3
 800169c:	0029      	movs	r1, r5
 800169e:	f001 fa45 	bl	8002b2c <memcpy>
 80016a2:	2307      	movs	r3, #7
 80016a4:	3601      	adds	r6, #1
 80016a6:	401e      	ands	r6, r3
 80016a8:	9b00      	ldr	r3, [sp, #0]
 80016aa:	9a01      	ldr	r2, [sp, #4]
 80016ac:	3301      	adds	r3, #1
 80016ae:	703e      	strb	r6, [r7, #0]
 80016b0:	7013      	strb	r3, [r2, #0]
 80016b2:	2300      	movs	r3, #0
 80016b4:	e7b6      	b.n	8001624 <man_update+0x28>
 80016b6:	786a      	ldrb	r2, [r5, #1]
 80016b8:	2b06      	cmp	r3, #6
 80016ba:	d10a      	bne.n	80016d2 <man_update+0xd6>
 80016bc:	2a67      	cmp	r2, #103	@ 0x67
 80016be:	d108      	bne.n	80016d2 <man_update+0xd6>
 80016c0:	000b      	movs	r3, r1
 80016c2:	5ce9      	ldrb	r1, [r5, r3]
 80016c4:	29ff      	cmp	r1, #255	@ 0xff
 80016c6:	d104      	bne.n	80016d2 <man_update+0xd6>
 80016c8:	3301      	adds	r3, #1
 80016ca:	2b07      	cmp	r3, #7
 80016cc:	d1f9      	bne.n	80016c2 <man_update+0xc6>
 80016ce:	4811      	ldr	r0, [pc, #68]	@ (8001714 <man_update+0x118>)
 80016d0:	e7cb      	b.n	800166a <man_update+0x6e>
 80016d2:	0011      	movs	r1, r2
 80016d4:	4810      	ldr	r0, [pc, #64]	@ (8001718 <man_update+0x11c>)
 80016d6:	f000 f9d1 	bl	8001a7c <log_pError>
 80016da:	e7ea      	b.n	80016b2 <man_update+0xb6>
 80016dc:	f000 f9ce 	bl	8001a7c <log_pError>
 80016e0:	e7e7      	b.n	80016b2 <man_update+0xb6>
 80016e2:	46c0      	nop			@ (mov r8, r8)
 80016e4:	200000c8 	andcs	r0, r0, r8, asr #1
 80016e8:	08005384 	stmdaeq	r0, {r2, r7, r8, r9, ip, lr}
 80016ec:	200000bf 	strhcs	r0, [r0], -pc	@ <UNPREDICTABLE>
 80016f0:	200000c7 	andcs	r0, r0, r7, asr #1
 80016f4:	200000c6 	andcs	r0, r0, r6, asr #1
 80016f8:	080052e4 	stmdaeq	r0, {r2, r5, r6, r7, r9, ip, lr}
 80016fc:	200000b7 	strhcs	r0, [r0], -r7
 8001700:	08005365 	stmdaeq	r0, {r0, r2, r5, r6, r8, r9, ip, lr}
 8001704:	20000064 	andcs	r0, r0, r4, rrx
 8001708:	0800531f 	stmdaeq	r0, {r0, r1, r2, r3, r4, r8, r9, ip, lr}
 800170c:	20000066 	andcs	r0, r0, r6, rrx
 8001710:	20000067 	andcs	r0, r0, r7, rrx
 8001714:	200000a7 	andcs	r0, r0, r7, lsr #1
 8001718:	08005343 	stmdaeq	r0, {r0, r1, r6, r8, r9, ip, lr}

0800171c <man_read>:
 800171c:	b570      	push	{r4, r5, r6, lr}
 800171e:	4d08      	ldr	r5, [pc, #32]	@ (8001740 <man_read+0x24>)
 8001720:	4b08      	ldr	r3, [pc, #32]	@ (8001744 <man_read+0x28>)
 8001722:	782c      	ldrb	r4, [r5, #0]
 8001724:	2208      	movs	r2, #8
 8001726:	00e1      	lsls	r1, r4, #3
 8001728:	18c9      	adds	r1, r1, r3
 800172a:	f001 f9ff 	bl	8002b2c <memcpy>
 800172e:	2307      	movs	r3, #7
 8001730:	4a05      	ldr	r2, [pc, #20]	@ (8001748 <man_read+0x2c>)
 8001732:	3401      	adds	r4, #1
 8001734:	401c      	ands	r4, r3
 8001736:	7813      	ldrb	r3, [r2, #0]
 8001738:	702c      	strb	r4, [r5, #0]
 800173a:	3b01      	subs	r3, #1
 800173c:	7013      	strb	r3, [r2, #0]
 800173e:	bd70      	pop	{r4, r5, r6, pc}
 8001740:	20000065 	andcs	r0, r0, r5, rrx
 8001744:	20000067 	andcs	r0, r0, r7, rrx
 8001748:	20000064 	andcs	r0, r0, r4, rrx

0800174c <man_packetAvailable>:
 800174c:	4b02      	ldr	r3, [pc, #8]	@ (8001758 <man_packetAvailable+0xc>)
 800174e:	7818      	ldrb	r0, [r3, #0]
 8001750:	1e43      	subs	r3, r0, #1
 8001752:	4198      	sbcs	r0, r3
 8001754:	b2c0      	uxtb	r0, r0
 8001756:	4770      	bx	lr
 8001758:	20000064 	andcs	r0, r0, r4, rrx

0800175c <man_createBLPacketSingle>:
 800175c:	b510      	push	{r4, lr}
 800175e:	2201      	movs	r2, #1
 8001760:	f7ff ff12 	bl	8001588 <createSingleBytePacket>
 8001764:	bd10      	pop	{r4, pc}

08001766 <man_isBLPacketSingle>:
 8001766:	7802      	ldrb	r2, [r0, #0]
 8001768:	0003      	movs	r3, r0
 800176a:	0892      	lsrs	r2, r2, #2
 800176c:	2000      	movs	r0, #0
 800176e:	2a01      	cmp	r2, #1
 8001770:	d104      	bne.n	800177c <man_isBLPacketSingle+0x16>
 8001772:	7858      	ldrb	r0, [r3, #1]
 8001774:	1a40      	subs	r0, r0, r1
 8001776:	4243      	negs	r3, r0
 8001778:	4158      	adcs	r0, r3
 800177a:	b2c0      	uxtb	r0, r0
 800177c:	4770      	bx	lr

0800177e <man_createBLPacketData>:
 800177e:	b570      	push	{r4, r5, r6, lr}
 8001780:	0004      	movs	r4, r0
 8001782:	0015      	movs	r5, r2
 8001784:	000e      	movs	r6, r1
 8001786:	2202      	movs	r2, #2
 8001788:	21ff      	movs	r1, #255	@ 0xff
 800178a:	3006      	adds	r0, #6
 800178c:	f001 f97a 	bl	8002a84 <memset>
 8001790:	2315      	movs	r3, #21
 8001792:	7023      	strb	r3, [r4, #0]
 8001794:	0a2b      	lsrs	r3, r5, #8
 8001796:	70a5      	strb	r5, [r4, #2]
 8001798:	70e3      	strb	r3, [r4, #3]
 800179a:	0c2b      	lsrs	r3, r5, #16
 800179c:	0e2d      	lsrs	r5, r5, #24
 800179e:	7066      	strb	r6, [r4, #1]
 80017a0:	7165      	strb	r5, [r4, #5]
 80017a2:	2107      	movs	r1, #7
 80017a4:	0020      	movs	r0, r4
 80017a6:	7123      	strb	r3, [r4, #4]
 80017a8:	f000 f82e 	bl	8001808 <crcif_compute8>
 80017ac:	71e0      	strb	r0, [r4, #7]
 80017ae:	bd70      	pop	{r4, r5, r6, pc}

080017b0 <man_isBLPacketData>:
 80017b0:	b510      	push	{r4, lr}
 80017b2:	7804      	ldrb	r4, [r0, #0]
 80017b4:	0003      	movs	r3, r0
 80017b6:	08a4      	lsrs	r4, r4, #2
 80017b8:	2000      	movs	r0, #0
 80017ba:	2c05      	cmp	r4, #5
 80017bc:	d113      	bne.n	80017e6 <man_isBLPacketData+0x36>
 80017be:	785c      	ldrb	r4, [r3, #1]
 80017c0:	428c      	cmp	r4, r1
 80017c2:	d110      	bne.n	80017e6 <man_isBLPacketData+0x36>
 80017c4:	3001      	adds	r0, #1
 80017c6:	2a00      	cmp	r2, #0
 80017c8:	d00d      	beq.n	80017e6 <man_isBLPacketData+0x36>
 80017ca:	78d8      	ldrb	r0, [r3, #3]
 80017cc:	7899      	ldrb	r1, [r3, #2]
 80017ce:	0200      	lsls	r0, r0, #8
 80017d0:	4308      	orrs	r0, r1
 80017d2:	7919      	ldrb	r1, [r3, #4]
 80017d4:	0409      	lsls	r1, r1, #16
 80017d6:	4301      	orrs	r1, r0
 80017d8:	7958      	ldrb	r0, [r3, #5]
 80017da:	0600      	lsls	r0, r0, #24
 80017dc:	4308      	orrs	r0, r1
 80017de:	1a80      	subs	r0, r0, r2
 80017e0:	4243      	negs	r3, r0
 80017e2:	4158      	adcs	r0, r3
 80017e4:	b2c0      	uxtb	r0, r0
 80017e6:	bd10      	pop	{r4, pc}

080017e8 <crcif_setup>:
 80017e8:	b510      	push	{r4, lr}
 80017ea:	4802      	ldr	r0, [pc, #8]	@ (80017f4 <crcif_setup+0xc>)
 80017ec:	f001 f812 	bl	8002814 <rcc_periph_clock_enable>
 80017f0:	2001      	movs	r0, #1
 80017f2:	bd10      	pop	{r4, pc}
 80017f4:	00000286 	andeq	r0, r0, r6, lsl #5

080017f8 <crcif_destruct>:
 80017f8:	b510      	push	{r4, lr}
 80017fa:	4802      	ldr	r0, [pc, #8]	@ (8001804 <crcif_destruct+0xc>)
 80017fc:	f001 f818 	bl	8002830 <rcc_periph_clock_disable>
 8001800:	2001      	movs	r0, #1
 8001802:	bd10      	pop	{r4, pc}
 8001804:	00000286 	andeq	r0, r0, r6, lsl #5

08001808 <crcif_compute8>:
 8001808:	b570      	push	{r4, r5, r6, lr}
 800180a:	000d      	movs	r5, r1
 800180c:	0004      	movs	r4, r0
 800180e:	f000 fe07 	bl	8002420 <crc_reset>
 8001812:	2010      	movs	r0, #16
 8001814:	f000 fe1e 	bl	8002454 <crc_set_polysize>
 8001818:	2007      	movs	r0, #7
 800181a:	f000 fe25 	bl	8002468 <crc_set_polynomial>
 800181e:	2000      	movs	r0, #0
 8001820:	f000 fe28 	bl	8002474 <crc_set_initial>
 8001824:	2000      	movs	r0, #0
 8001826:	f000 fe0b 	bl	8002440 <crc_set_reverse_input>
 800182a:	f000 fe01 	bl	8002430 <crc_reverse_output_disable>
 800182e:	4b05      	ldr	r3, [pc, #20]	@ (8001844 <crcif_compute8+0x3c>)
 8001830:	1965      	adds	r5, r4, r5
 8001832:	42ac      	cmp	r4, r5
 8001834:	d102      	bne.n	800183c <crcif_compute8+0x34>
 8001836:	7818      	ldrb	r0, [r3, #0]
 8001838:	b2c0      	uxtb	r0, r0
 800183a:	bd70      	pop	{r4, r5, r6, pc}
 800183c:	7822      	ldrb	r2, [r4, #0]
 800183e:	3401      	adds	r4, #1
 8001840:	701a      	strb	r2, [r3, #0]
 8001842:	e7f6      	b.n	8001832 <crcif_compute8+0x2a>
 8001844:	40023000 	andmi	r3, r2, r0

08001848 <crcif_compute32>:
 8001848:	b5f7      	push	{r0, r1, r2, r4, r5, r6, r7, lr}
 800184a:	000d      	movs	r5, r1
 800184c:	0004      	movs	r4, r0
 800184e:	f000 fde7 	bl	8002420 <crc_reset>
 8001852:	2001      	movs	r0, #1
 8001854:	4240      	negs	r0, r0
 8001856:	f000 fe0d 	bl	8002474 <crc_set_initial>
 800185a:	2000      	movs	r0, #0
 800185c:	f000 fdfa 	bl	8002454 <crc_set_polysize>
 8001860:	2603      	movs	r6, #3
 8001862:	4826      	ldr	r0, [pc, #152]	@ (80018fc <crcif_compute32+0xb4>)
 8001864:	f000 fe00 	bl	8002468 <crc_set_polynomial>
 8001868:	2020      	movs	r0, #32
 800186a:	f000 fde9 	bl	8002440 <crc_set_reverse_input>
 800186e:	f000 fddf 	bl	8002430 <crc_reverse_output_disable>
 8001872:	0020      	movs	r0, r4
 8001874:	08ab      	lsrs	r3, r5, #2
 8001876:	402e      	ands	r6, r5
 8001878:	009b      	lsls	r3, r3, #2
 800187a:	4d21      	ldr	r5, [pc, #132]	@ (8001900 <crcif_compute32+0xb8>)
 800187c:	1919      	adds	r1, r3, r4
 800187e:	4281      	cmp	r1, r0
 8001880:	d12b      	bne.n	80018da <crcif_compute32+0x92>
 8001882:	19a4      	adds	r4, r4, r6
 8001884:	18e4      	adds	r4, r4, r3
 8001886:	42a1      	cmp	r1, r4
 8001888:	d134      	bne.n	80018f4 <crcif_compute32+0xac>
 800188a:	2104      	movs	r1, #4
 800188c:	2455      	movs	r4, #85	@ 0x55
 800188e:	2033      	movs	r0, #51	@ 0x33
 8001890:	682b      	ldr	r3, [r5, #0]
 8001892:	aa01      	add	r2, sp, #4
 8001894:	0e1b      	lsrs	r3, r3, #24
 8001896:	7013      	strb	r3, [r2, #0]
 8001898:	682b      	ldr	r3, [r5, #0]
 800189a:	0c1b      	lsrs	r3, r3, #16
 800189c:	7053      	strb	r3, [r2, #1]
 800189e:	682b      	ldr	r3, [r5, #0]
 80018a0:	0a1b      	lsrs	r3, r3, #8
 80018a2:	7093      	strb	r3, [r2, #2]
 80018a4:	682b      	ldr	r3, [r5, #0]
 80018a6:	70d3      	strb	r3, [r2, #3]
 80018a8:	7813      	ldrb	r3, [r2, #0]
 80018aa:	3901      	subs	r1, #1
 80018ac:	005d      	lsls	r5, r3, #1
 80018ae:	105b      	asrs	r3, r3, #1
 80018b0:	4023      	ands	r3, r4
 80018b2:	43a5      	bics	r5, r4
 80018b4:	431d      	orrs	r5, r3
 80018b6:	b2ed      	uxtb	r5, r5
 80018b8:	00ab      	lsls	r3, r5, #2
 80018ba:	10ad      	asrs	r5, r5, #2
 80018bc:	4005      	ands	r5, r0
 80018be:	4383      	bics	r3, r0
 80018c0:	432b      	orrs	r3, r5
 80018c2:	b2db      	uxtb	r3, r3
 80018c4:	091d      	lsrs	r5, r3, #4
 80018c6:	011b      	lsls	r3, r3, #4
 80018c8:	432b      	orrs	r3, r5
 80018ca:	b2c9      	uxtb	r1, r1
 80018cc:	7013      	strb	r3, [r2, #0]
 80018ce:	3201      	adds	r2, #1
 80018d0:	2900      	cmp	r1, #0
 80018d2:	d1e9      	bne.n	80018a8 <crcif_compute32+0x60>
 80018d4:	9801      	ldr	r0, [sp, #4]
 80018d6:	43c0      	mvns	r0, r0
 80018d8:	bdfe      	pop	{r1, r2, r3, r4, r5, r6, r7, pc}
 80018da:	7802      	ldrb	r2, [r0, #0]
 80018dc:	7847      	ldrb	r7, [r0, #1]
 80018de:	0612      	lsls	r2, r2, #24
 80018e0:	043f      	lsls	r7, r7, #16
 80018e2:	433a      	orrs	r2, r7
 80018e4:	78c7      	ldrb	r7, [r0, #3]
 80018e6:	433a      	orrs	r2, r7
 80018e8:	7887      	ldrb	r7, [r0, #2]
 80018ea:	3004      	adds	r0, #4
 80018ec:	023f      	lsls	r7, r7, #8
 80018ee:	433a      	orrs	r2, r7
 80018f0:	602a      	str	r2, [r5, #0]
 80018f2:	e7c4      	b.n	800187e <crcif_compute32+0x36>
 80018f4:	780b      	ldrb	r3, [r1, #0]
 80018f6:	3101      	adds	r1, #1
 80018f8:	702b      	strb	r3, [r5, #0]
 80018fa:	e7c4      	b.n	8001886 <crcif_compute32+0x3e>
 80018fc:	04c11db7 	strbeq	r1, [r1], #3511	@ 0xdb7
 8001900:	40023000 	andmi	r3, r2, r0

08001904 <sys_tick_handler>:
 8001904:	b530      	push	{r4, r5, lr}
 8001906:	2500      	movs	r5, #0
 8001908:	2401      	movs	r4, #1
 800190a:	4904      	ldr	r1, [pc, #16]	@ (800191c <sys_tick_handler+0x18>)
 800190c:	680a      	ldr	r2, [r1, #0]
 800190e:	684b      	ldr	r3, [r1, #4]
 8001910:	1912      	adds	r2, r2, r4
 8001912:	416b      	adcs	r3, r5
 8001914:	600a      	str	r2, [r1, #0]
 8001916:	604b      	str	r3, [r1, #4]
 8001918:	bd30      	pop	{r4, r5, pc}
 800191a:	46c0      	nop			@ (mov r8, r8)
 800191c:	200000d0 	ldrdcs	r0, [r0], -r0	@ <UNPREDICTABLE>

08001920 <system_rccInit>:
 8001920:	b510      	push	{r4, lr}
 8001922:	4806      	ldr	r0, [pc, #24]	@ (800193c <system_rccInit+0x1c>)
 8001924:	f000 ff76 	bl	8002814 <rcc_periph_clock_enable>
 8001928:	4805      	ldr	r0, [pc, #20]	@ (8001940 <system_rccInit+0x20>)
 800192a:	f000 ff73 	bl	8002814 <rcc_periph_clock_enable>
 800192e:	4805      	ldr	r0, [pc, #20]	@ (8001944 <system_rccInit+0x24>)
 8001930:	f000 ff70 	bl	8002814 <rcc_periph_clock_enable>
 8001934:	f000 ff2e 	bl	8002794 <rcc_clock_setup_in_hsi48_out_48mhz>
 8001938:	bd10      	pop	{r4, pc}
 800193a:	46c0      	nop			@ (mov r8, r8)
 800193c:	00000291 	muleq	r0, r1, r2
 8001940:	00000292 	muleq	r0, r2, r2
 8001944:	00000293 	muleq	r0, r3, r2

08001948 <system_systickInit>:
 8001948:	20fa      	movs	r0, #250	@ 0xfa
 800194a:	b510      	push	{r4, lr}
 800194c:	4b04      	ldr	r3, [pc, #16]	@ (8001960 <system_systickInit+0x18>)
 800194e:	0080      	lsls	r0, r0, #2
 8001950:	6819      	ldr	r1, [r3, #0]
 8001952:	f001 f83f 	bl	80029d4 <systick_set_frequency>
 8001956:	f001 f861 	bl	8002a1c <systick_counter_enable>
 800195a:	f001 f84f 	bl	80029fc <systick_interrupt_enable>
 800195e:	bd10      	pop	{r4, pc}
 8001960:	2000000c 	andcs	r0, r0, ip

08001964 <system_systickDeinit>:
 8001964:	b510      	push	{r4, lr}
 8001966:	f001 f851 	bl	8002a0c <systick_interrupt_disable>
 800196a:	f001 f85f 	bl	8002a2c <systick_counter_disable>
 800196e:	f001 f865 	bl	8002a3c <systick_clear>
 8001972:	bd10      	pop	{r4, pc}

08001974 <system_delayMs>:
 8001974:	b510      	push	{r4, lr}
 8001976:	4c06      	ldr	r4, [pc, #24]	@ (8001990 <system_delayMs+0x1c>)
 8001978:	6822      	ldr	r2, [r4, #0]
 800197a:	6863      	ldr	r3, [r4, #4]
 800197c:	1880      	adds	r0, r0, r2
 800197e:	4159      	adcs	r1, r3
 8001980:	6822      	ldr	r2, [r4, #0]
 8001982:	6863      	ldr	r3, [r4, #4]
 8001984:	4299      	cmp	r1, r3
 8001986:	d8fb      	bhi.n	8001980 <system_delayMs+0xc>
 8001988:	d101      	bne.n	800198e <system_delayMs+0x1a>
 800198a:	4290      	cmp	r0, r2
 800198c:	d8f8      	bhi.n	8001980 <system_delayMs+0xc>
 800198e:	bd10      	pop	{r4, pc}
 8001990:	200000d0 	ldrdcs	r0, [r0], -r0	@ <UNPREDICTABLE>

08001994 <timeout_setup>:
 8001994:	b530      	push	{r4, r5, lr}
 8001996:	001d      	movs	r5, r3
 8001998:	ab03      	add	r3, sp, #12
 800199a:	781b      	ldrb	r3, [r3, #0]
 800199c:	0014      	movs	r4, r2
 800199e:	7403      	strb	r3, [r0, #16]
 80019a0:	2300      	movs	r3, #0
 80019a2:	7443      	strb	r3, [r0, #17]
 80019a4:	4b04      	ldr	r3, [pc, #16]	@ (80019b8 <timeout_setup+0x24>)
 80019a6:	6004      	str	r4, [r0, #0]
 80019a8:	6045      	str	r5, [r0, #4]
 80019aa:	681a      	ldr	r2, [r3, #0]
 80019ac:	685b      	ldr	r3, [r3, #4]
 80019ae:	18a4      	adds	r4, r4, r2
 80019b0:	415d      	adcs	r5, r3
 80019b2:	6084      	str	r4, [r0, #8]
 80019b4:	60c5      	str	r5, [r0, #12]
 80019b6:	bd30      	pop	{r4, r5, pc}
 80019b8:	200000d0 	ldrdcs	r0, [r0], -r0	@ <UNPREDICTABLE>

080019bc <timeout_hasElapsed>:
 80019bc:	b5f0      	push	{r4, r5, r6, r7, lr}
 80019be:	0003      	movs	r3, r0
 80019c0:	7c40      	ldrb	r0, [r0, #17]
 80019c2:	2800      	cmp	r0, #0
 80019c4:	d117      	bne.n	80019f6 <timeout_hasElapsed+0x3a>
 80019c6:	689c      	ldr	r4, [r3, #8]
 80019c8:	68dd      	ldr	r5, [r3, #12]
 80019ca:	4a0c      	ldr	r2, [pc, #48]	@ (80019fc <timeout_hasElapsed+0x40>)
 80019cc:	6816      	ldr	r6, [r2, #0]
 80019ce:	6857      	ldr	r7, [r2, #4]
 80019d0:	42bd      	cmp	r5, r7
 80019d2:	d80c      	bhi.n	80019ee <timeout_hasElapsed+0x32>
 80019d4:	d101      	bne.n	80019da <timeout_hasElapsed+0x1e>
 80019d6:	42b4      	cmp	r4, r6
 80019d8:	d809      	bhi.n	80019ee <timeout_hasElapsed+0x32>
 80019da:	7c1a      	ldrb	r2, [r3, #16]
 80019dc:	2a00      	cmp	r2, #0
 80019de:	d007      	beq.n	80019f0 <timeout_hasElapsed+0x34>
 80019e0:	6818      	ldr	r0, [r3, #0]
 80019e2:	6859      	ldr	r1, [r3, #4]
 80019e4:	1900      	adds	r0, r0, r4
 80019e6:	4169      	adcs	r1, r5
 80019e8:	6098      	str	r0, [r3, #8]
 80019ea:	60d9      	str	r1, [r3, #12]
 80019ec:	2001      	movs	r0, #1
 80019ee:	bdf0      	pop	{r4, r5, r6, r7, pc}
 80019f0:	2201      	movs	r2, #1
 80019f2:	745a      	strb	r2, [r3, #17]
 80019f4:	e7fa      	b.n	80019ec <timeout_hasElapsed+0x30>
 80019f6:	2000      	movs	r0, #0
 80019f8:	e7f9      	b.n	80019ee <timeout_hasElapsed+0x32>
 80019fa:	46c0      	nop			@ (mov r8, r8)
 80019fc:	200000d0 	ldrdcs	r0, [r0], -r0	@ <UNPREDICTABLE>

08001a00 <timeout_reset>:
 8001a00:	4b05      	ldr	r3, [pc, #20]	@ (8001a18 <timeout_reset+0x18>)
 8001a02:	b530      	push	{r4, r5, lr}
 8001a04:	681c      	ldr	r4, [r3, #0]
 8001a06:	685d      	ldr	r5, [r3, #4]
 8001a08:	6802      	ldr	r2, [r0, #0]
 8001a0a:	6843      	ldr	r3, [r0, #4]
 8001a0c:	1912      	adds	r2, r2, r4
 8001a0e:	416b      	adcs	r3, r5
 8001a10:	6082      	str	r2, [r0, #8]
 8001a12:	60c3      	str	r3, [r0, #12]
 8001a14:	bd30      	pop	{r4, r5, pc}
 8001a16:	46c0      	nop			@ (mov r8, r8)
 8001a18:	200000d0 	ldrdcs	r0, [r0], -r0	@ <UNPREDICTABLE>

08001a1c <log_pInfo>:
 8001a1c:	b40f      	push	{r0, r1, r2, r3}
 8001a1e:	b513      	push	{r0, r1, r4, lr}
 8001a20:	ab04      	add	r3, sp, #16
 8001a22:	cb10      	ldmia	r3!, {r4}
 8001a24:	4807      	ldr	r0, [pc, #28]	@ (8001a44 <log_pInfo+0x28>)
 8001a26:	9301      	str	r3, [sp, #4]
 8001a28:	f7ff faf6 	bl	8001018 <printf_>
 8001a2c:	9901      	ldr	r1, [sp, #4]
 8001a2e:	0020      	movs	r0, r4
 8001a30:	f7ff fb04 	bl	800103c <vprintf_>
 8001a34:	4804      	ldr	r0, [pc, #16]	@ (8001a48 <log_pInfo+0x2c>)
 8001a36:	f7ff faef 	bl	8001018 <printf_>
 8001a3a:	bc13      	pop	{r0, r1, r4}
 8001a3c:	bc08      	pop	{r3}
 8001a3e:	b004      	add	sp, #16
 8001a40:	4718      	bx	r3
 8001a42:	46c0      	nop			@ (mov r8, r8)
 8001a44:	080053a4 	stmdaeq	r0, {r2, r5, r7, r8, r9, ip, lr}
 8001a48:	080053ac 	stmdaeq	r0, {r2, r3, r5, r7, r8, r9, ip, lr}

08001a4c <log_pSuccess>:
 8001a4c:	b40f      	push	{r0, r1, r2, r3}
 8001a4e:	b513      	push	{r0, r1, r4, lr}
 8001a50:	ab04      	add	r3, sp, #16
 8001a52:	cb10      	ldmia	r3!, {r4}
 8001a54:	4807      	ldr	r0, [pc, #28]	@ (8001a74 <log_pSuccess+0x28>)
 8001a56:	9301      	str	r3, [sp, #4]
 8001a58:	f7ff fade 	bl	8001018 <printf_>
 8001a5c:	9901      	ldr	r1, [sp, #4]
 8001a5e:	0020      	movs	r0, r4
 8001a60:	f7ff faec 	bl	800103c <vprintf_>
 8001a64:	4804      	ldr	r0, [pc, #16]	@ (8001a78 <log_pSuccess+0x2c>)
 8001a66:	f7ff fad7 	bl	8001018 <printf_>
 8001a6a:	bc13      	pop	{r0, r1, r4}
 8001a6c:	bc08      	pop	{r3}
 8001a6e:	b004      	add	sp, #16
 8001a70:	4718      	bx	r3
 8001a72:	46c0      	nop			@ (mov r8, r8)
 8001a74:	080053af 	stmdaeq	r0, {r0, r1, r2, r3, r5, r7, r8, r9, ip, lr}
 8001a78:	080053ac 	stmdaeq	r0, {r2, r3, r5, r7, r8, r9, ip, lr}

08001a7c <log_pError>:
 8001a7c:	b40f      	push	{r0, r1, r2, r3}
 8001a7e:	b513      	push	{r0, r1, r4, lr}
 8001a80:	ab04      	add	r3, sp, #16
 8001a82:	cb10      	ldmia	r3!, {r4}
 8001a84:	4807      	ldr	r0, [pc, #28]	@ (8001aa4 <log_pError+0x28>)
 8001a86:	9301      	str	r3, [sp, #4]
 8001a88:	f7ff fac6 	bl	8001018 <printf_>
 8001a8c:	9901      	ldr	r1, [sp, #4]
 8001a8e:	0020      	movs	r0, r4
 8001a90:	f7ff fad4 	bl	800103c <vprintf_>
 8001a94:	4804      	ldr	r0, [pc, #16]	@ (8001aa8 <log_pError+0x2c>)
 8001a96:	f7ff fabf 	bl	8001018 <printf_>
 8001a9a:	bc13      	pop	{r0, r1, r4}
 8001a9c:	bc08      	pop	{r3}
 8001a9e:	b004      	add	sp, #16
 8001aa0:	4718      	bx	r3
 8001aa2:	46c0      	nop			@ (mov r8, r8)
 8001aa4:	080053b5 	stmdaeq	r0, {r0, r2, r4, r5, r7, r8, r9, ip, lr}
 8001aa8:	080053ac 	stmdaeq	r0, {r2, r3, r5, r7, r8, r9, ip, lr}

08001aac <uart1if_setup>:
 8001aac:	b570      	push	{r4, r5, r6, lr}
 8001aae:	25c0      	movs	r5, #192	@ 0xc0
 8001ab0:	2490      	movs	r4, #144	@ 0x90
 8001ab2:	00ed      	lsls	r5, r5, #3
 8001ab4:	05e4      	lsls	r4, r4, #23
 8001ab6:	002b      	movs	r3, r5
 8001ab8:	0020      	movs	r0, r4
 8001aba:	2200      	movs	r2, #0
 8001abc:	2102      	movs	r1, #2
 8001abe:	f000 fd40 	bl	8002542 <gpio_mode_setup>
 8001ac2:	002a      	movs	r2, r5
 8001ac4:	2101      	movs	r1, #1
 8001ac6:	0020      	movs	r0, r4
 8001ac8:	4c11      	ldr	r4, [pc, #68]	@ (8001b10 <uart1if_setup+0x64>)
 8001aca:	f000 fd78 	bl	80025be <gpio_set_af>
 8001ace:	4811      	ldr	r0, [pc, #68]	@ (8001b14 <uart1if_setup+0x68>)
 8001ad0:	f000 fea0 	bl	8002814 <rcc_periph_clock_enable>
 8001ad4:	0020      	movs	r0, r4
 8001ad6:	210c      	movs	r1, #12
 8001ad8:	f000 ff00 	bl	80028dc <usart_set_mode>
 8001adc:	0020      	movs	r0, r4
 8001ade:	2100      	movs	r1, #0
 8001ae0:	f000 ff02 	bl	80028e8 <usart_set_flow_control>
 8001ae4:	0020      	movs	r0, r4
 8001ae6:	2108      	movs	r1, #8
 8001ae8:	f000 feda 	bl	80028a0 <usart_set_databits>
 8001aec:	21e1      	movs	r1, #225	@ 0xe1
 8001aee:	0020      	movs	r0, r4
 8001af0:	0249      	lsls	r1, r1, #9
 8001af2:	f000 fec8 	bl	8002886 <usart_set_baudrate>
 8001af6:	0020      	movs	r0, r4
 8001af8:	2100      	movs	r1, #0
 8001afa:	f000 fee7 	bl	80028cc <usart_set_parity>
 8001afe:	2101      	movs	r1, #1
 8001b00:	0020      	movs	r0, r4
 8001b02:	f000 fedb 	bl	80028bc <usart_set_stopbits>
 8001b06:	0020      	movs	r0, r4
 8001b08:	f000 fef6 	bl	80028f8 <usart_enable>
 8001b0c:	2001      	movs	r0, #1
 8001b0e:	bd70      	pop	{r4, r5, r6, pc}
 8001b10:	40013800 	andmi	r3, r1, r0, lsl #16
 8001b14:	0000030e 	andeq	r0, r0, lr, lsl #6

08001b18 <uart1if_destruct>:
 8001b18:	b510      	push	{r4, lr}
 8001b1a:	4804      	ldr	r0, [pc, #16]	@ (8001b2c <uart1if_destruct+0x14>)
 8001b1c:	f000 fef1 	bl	8002902 <usart_disable>
 8001b20:	4803      	ldr	r0, [pc, #12]	@ (8001b30 <uart1if_destruct+0x18>)
 8001b22:	f000 fe85 	bl	8002830 <rcc_periph_clock_disable>
 8001b26:	2001      	movs	r0, #1
 8001b28:	bd10      	pop	{r4, pc}
 8001b2a:	46c0      	nop			@ (mov r8, r8)
 8001b2c:	40013800 	andmi	r3, r1, r0, lsl #16
 8001b30:	0000030e 	andeq	r0, r0, lr, lsl #6

08001b34 <uart1if_writeByte>:
 8001b34:	b510      	push	{r4, lr}
 8001b36:	0001      	movs	r1, r0
 8001b38:	4801      	ldr	r0, [pc, #4]	@ (8001b40 <uart1if_writeByte+0xc>)
 8001b3a:	f000 fee7 	bl	800290c <usart_send_blocking>
 8001b3e:	bd10      	pop	{r4, pc}
 8001b40:	40013800 	andmi	r3, r1, r0, lsl #16

08001b44 <_putchar>:
 8001b44:	b510      	push	{r4, lr}
 8001b46:	f7ff fff5 	bl	8001b34 <uart1if_writeByte>
 8001b4a:	bd10      	pop	{r4, pc}

08001b4c <canif_receive>:
 8001b4c:	231e      	movs	r3, #30
 8001b4e:	b530      	push	{r4, r5, lr}
 8001b50:	b08d      	sub	sp, #52	@ 0x34
 8001b52:	446b      	add	r3, sp
 8001b54:	9305      	str	r3, [sp, #20]
 8001b56:	ab09      	add	r3, sp, #36	@ 0x24
 8001b58:	9303      	str	r3, [sp, #12]
 8001b5a:	231d      	movs	r3, #29
 8001b5c:	446b      	add	r3, sp
 8001b5e:	9302      	str	r3, [sp, #8]
 8001b60:	ab07      	add	r3, sp, #28
 8001b62:	9301      	str	r3, [sp, #4]
 8001b64:	2525      	movs	r5, #37	@ 0x25
 8001b66:	231b      	movs	r3, #27
 8001b68:	ac08      	add	r4, sp, #32
 8001b6a:	446b      	add	r3, sp
 8001b6c:	446d      	add	r5, sp
 8001b6e:	0001      	movs	r1, r0
 8001b70:	9300      	str	r3, [sp, #0]
 8001b72:	2201      	movs	r2, #1
 8001b74:	0023      	movs	r3, r4
 8001b76:	480e      	ldr	r0, [pc, #56]	@ (8001bb0 <canif_receive+0x64>)
 8001b78:	9504      	str	r5, [sp, #16]
 8001b7a:	f000 fc04 	bl	8002386 <can_receive>
 8001b7e:	9908      	ldr	r1, [sp, #32]
 8001b80:	2928      	cmp	r1, #40	@ 0x28
 8001b82:	d003      	beq.n	8001b8c <canif_receive+0x40>
 8001b84:	2929      	cmp	r1, #41	@ 0x29
 8001b86:	d00f      	beq.n	8001ba8 <canif_receive+0x5c>
 8001b88:	480a      	ldr	r0, [pc, #40]	@ (8001bb4 <canif_receive+0x68>)
 8001b8a:	e009      	b.n	8001ba0 <canif_receive+0x54>
 8001b8c:	7922      	ldrb	r2, [r4, #4]
 8001b8e:	480a      	ldr	r0, [pc, #40]	@ (8001bb8 <canif_receive+0x6c>)
 8001b90:	0029      	movs	r1, r5
 8001b92:	f000 f98a 	bl	8001eaa <cqueue_pushn>
 8001b96:	7921      	ldrb	r1, [r4, #4]
 8001b98:	4281      	cmp	r1, r0
 8001b9a:	d003      	beq.n	8001ba4 <canif_receive+0x58>
 8001b9c:	1a09      	subs	r1, r1, r0
 8001b9e:	4807      	ldr	r0, [pc, #28]	@ (8001bbc <canif_receive+0x70>)
 8001ba0:	f7ff ff6c 	bl	8001a7c <log_pError>
 8001ba4:	b00d      	add	sp, #52	@ 0x34
 8001ba6:	bd30      	pop	{r4, r5, pc}
 8001ba8:	7922      	ldrb	r2, [r4, #4]
 8001baa:	4805      	ldr	r0, [pc, #20]	@ (8001bc0 <canif_receive+0x74>)
 8001bac:	e7f0      	b.n	8001b90 <canif_receive+0x44>
 8001bae:	46c0      	nop			@ (mov r8, r8)
 8001bb0:	40006400 	andmi	r6, r0, r0, lsl #8
 8001bb4:	080053df 	stmdaeq	r0, {r0, r1, r2, r3, r4, r6, r7, r8, r9, ip, lr}
 8001bb8:	200006ec 	andcs	r0, r0, ip, ror #13
 8001bbc:	080053be 	stmdaeq	r0, {r1, r2, r3, r4, r5, r7, r8, r9, ip, lr}
 8001bc0:	200000d8 	ldrdcs	r0, [r0], -r8

08001bc4 <cec_can_isr>:
 8001bc4:	4b07      	ldr	r3, [pc, #28]	@ (8001be4 <cec_can_isr+0x20>)
 8001bc6:	b510      	push	{r4, lr}
 8001bc8:	681b      	ldr	r3, [r3, #0]
 8001bca:	079b      	lsls	r3, r3, #30
 8001bcc:	d002      	beq.n	8001bd4 <cec_can_isr+0x10>
 8001bce:	2000      	movs	r0, #0
 8001bd0:	f7ff ffbc 	bl	8001b4c <canif_receive>
 8001bd4:	4b04      	ldr	r3, [pc, #16]	@ (8001be8 <cec_can_isr+0x24>)
 8001bd6:	681b      	ldr	r3, [r3, #0]
 8001bd8:	079b      	lsls	r3, r3, #30
 8001bda:	d002      	beq.n	8001be2 <cec_can_isr+0x1e>
 8001bdc:	2001      	movs	r0, #1
 8001bde:	f7ff ffb5 	bl	8001b4c <canif_receive>
 8001be2:	bd10      	pop	{r4, pc}
 8001be4:	4000640c 	andmi	r6, r0, ip, lsl #8
 8001be8:	40006410 	andmi	r6, r0, r0, lsl r4

08001bec <canif_setup>:
 8001bec:	b530      	push	{r4, r5, lr}
 8001bee:	4836      	ldr	r0, [pc, #216]	@ (8001cc8 <canif_setup+0xdc>)
 8001bf0:	b08b      	sub	sp, #44	@ 0x2c
 8001bf2:	f7ff ff13 	bl	8001a1c <log_pInfo>
 8001bf6:	2240      	movs	r2, #64	@ 0x40
 8001bf8:	4934      	ldr	r1, [pc, #208]	@ (8001ccc <canif_setup+0xe0>)
 8001bfa:	4835      	ldr	r0, [pc, #212]	@ (8001cd0 <canif_setup+0xe4>)
 8001bfc:	f000 f92c 	bl	8001e58 <cqueue_init>
 8001c00:	22c0      	movs	r2, #192	@ 0xc0
 8001c02:	4934      	ldr	r1, [pc, #208]	@ (8001cd4 <canif_setup+0xe8>)
 8001c04:	4834      	ldr	r0, [pc, #208]	@ (8001cd8 <canif_setup+0xec>)
 8001c06:	00d2      	lsls	r2, r2, #3
 8001c08:	f000 f926 	bl	8001e58 <cqueue_init>
 8001c0c:	23c0      	movs	r3, #192	@ 0xc0
 8001c0e:	2090      	movs	r0, #144	@ 0x90
 8001c10:	015b      	lsls	r3, r3, #5
 8001c12:	2200      	movs	r2, #0
 8001c14:	2102      	movs	r1, #2
 8001c16:	05c0      	lsls	r0, r0, #23
 8001c18:	f000 fc93 	bl	8002542 <gpio_mode_setup>
 8001c1c:	22c0      	movs	r2, #192	@ 0xc0
 8001c1e:	2090      	movs	r0, #144	@ 0x90
 8001c20:	2104      	movs	r1, #4
 8001c22:	0152      	lsls	r2, r2, #5
 8001c24:	05c0      	lsls	r0, r0, #23
 8001c26:	f000 fcca 	bl	80025be <gpio_set_af>
 8001c2a:	23c0      	movs	r3, #192	@ 0xc0
 8001c2c:	2090      	movs	r0, #144	@ 0x90
 8001c2e:	2203      	movs	r2, #3
 8001c30:	2100      	movs	r1, #0
 8001c32:	015b      	lsls	r3, r3, #5
 8001c34:	05c0      	lsls	r0, r0, #23
 8001c36:	f000 fca4 	bl	8002582 <gpio_set_output_options>
 8001c3a:	4828      	ldr	r0, [pc, #160]	@ (8001cdc <canif_setup+0xf0>)
 8001c3c:	f000 fdea 	bl	8002814 <rcc_periph_clock_enable>
 8001c40:	4827      	ldr	r0, [pc, #156]	@ (8001ce0 <canif_setup+0xf4>)
 8001c42:	f000 fa0d 	bl	8002060 <can_reset>
 8001c46:	2303      	movs	r3, #3
 8001c48:	9306      	str	r3, [sp, #24]
 8001c4a:	2380      	movs	r3, #128	@ 0x80
 8001c4c:	035b      	lsls	r3, r3, #13
 8001c4e:	9305      	str	r3, [sp, #20]
 8001c50:	23c0      	movs	r3, #192	@ 0xc0
 8001c52:	2400      	movs	r4, #0
 8001c54:	031b      	lsls	r3, r3, #12
 8001c56:	9304      	str	r3, [sp, #16]
 8001c58:	2201      	movs	r2, #1
 8001c5a:	0023      	movs	r3, r4
 8001c5c:	0021      	movs	r1, r4
 8001c5e:	4820      	ldr	r0, [pc, #128]	@ (8001ce0 <canif_setup+0xf4>)
 8001c60:	9408      	str	r4, [sp, #32]
 8001c62:	9407      	str	r4, [sp, #28]
 8001c64:	9403      	str	r4, [sp, #12]
 8001c66:	9402      	str	r4, [sp, #8]
 8001c68:	9401      	str	r4, [sp, #4]
 8001c6a:	9400      	str	r4, [sp, #0]
 8001c6c:	f000 fa04 	bl	8002078 <can_init>
 8001c70:	2801      	cmp	r0, #1
 8001c72:	d105      	bne.n	8001c80 <canif_setup+0x94>
 8001c74:	481b      	ldr	r0, [pc, #108]	@ (8001ce4 <canif_setup+0xf8>)
 8001c76:	f7ff ff01 	bl	8001a7c <log_pError>
 8001c7a:	0020      	movs	r0, r4
 8001c7c:	b00b      	add	sp, #44	@ 0x2c
 8001c7e:	bd30      	pop	{r4, r5, pc}
 8001c80:	2112      	movs	r1, #18
 8001c82:	4817      	ldr	r0, [pc, #92]	@ (8001ce0 <canif_setup+0xf4>)
 8001c84:	f000 fb01 	bl	800228a <can_enable_irq>
 8001c88:	201e      	movs	r0, #30
 8001c8a:	f000 fedd 	bl	8002a48 <nvic_enable_irq>
 8001c8e:	22fc      	movs	r2, #252	@ 0xfc
 8001c90:	23a0      	movs	r3, #160	@ 0xa0
 8001c92:	2501      	movs	r5, #1
 8001c94:	0152      	lsls	r2, r2, #5
 8001c96:	00db      	lsls	r3, r3, #3
 8001c98:	0019      	movs	r1, r3
 8001c9a:	0028      	movs	r0, r5
 8001c9c:	9200      	str	r2, [sp, #0]
 8001c9e:	9502      	str	r5, [sp, #8]
 8001ca0:	9401      	str	r4, [sp, #4]
 8001ca2:	f000 fadd 	bl	8002260 <can_filter_id_mask_16bit_init>
 8001ca6:	22f0      	movs	r2, #240	@ 0xf0
 8001ca8:	23f0      	movs	r3, #240	@ 0xf0
 8001caa:	0152      	lsls	r2, r2, #5
 8001cac:	005b      	lsls	r3, r3, #1
 8001cae:	0019      	movs	r1, r3
 8001cb0:	2002      	movs	r0, #2
 8001cb2:	9200      	str	r2, [sp, #0]
 8001cb4:	9502      	str	r5, [sp, #8]
 8001cb6:	9501      	str	r5, [sp, #4]
 8001cb8:	f000 fad2 	bl	8002260 <can_filter_id_mask_16bit_init>
 8001cbc:	480a      	ldr	r0, [pc, #40]	@ (8001ce8 <canif_setup+0xfc>)
 8001cbe:	f7ff fec5 	bl	8001a4c <log_pSuccess>
 8001cc2:	0028      	movs	r0, r5
 8001cc4:	e7da      	b.n	8001c7c <canif_setup+0x90>
 8001cc6:	46c0      	nop			@ (mov r8, r8)
 8001cc8:	080053fb 	stmdaeq	r0, {r0, r1, r3, r4, r5, r6, r7, r8, r9, ip, lr}
 8001ccc:	20000700 	andcs	r0, r0, r0, lsl #14
 8001cd0:	200006ec 	andcs	r0, r0, ip, ror #13
 8001cd4:	200000ec 	andcs	r0, r0, ip, ror #1
 8001cd8:	200000d8 	ldrdcs	r0, [r0], -r8
 8001cdc:	00000399 	muleq	r0, r9, r3
 8001ce0:	40006400 	andmi	r6, r0, r0, lsl #8
 8001ce4:	08005404 	stmdaeq	r0, {r2, sl, ip, lr}
 8001ce8:	08005414 	stmdaeq	r0, {r2, r4, sl, ip, lr}

08001cec <canif_sendVehMsg>:
 8001cec:	000b      	movs	r3, r1
 8001cee:	b507      	push	{r0, r1, r2, lr}
 8001cf0:	9300      	str	r3, [sp, #0]
 8001cf2:	2300      	movs	r3, #0
 8001cf4:	0011      	movs	r1, r2
 8001cf6:	9001      	str	r0, [sp, #4]
 8001cf8:	001a      	movs	r2, r3
 8001cfa:	4802      	ldr	r0, [pc, #8]	@ (8001d04 <canif_sendVehMsg+0x18>)
 8001cfc:	f000 faca 	bl	8002294 <can_transmit>
 8001d00:	b240      	sxtb	r0, r0
 8001d02:	bd0e      	pop	{r1, r2, r3, pc}
 8001d04:	40006400 	andmi	r6, r0, r0, lsl #8

08001d08 <canif_sendData>:
 8001d08:	b5f0      	push	{r4, r5, r6, r7, lr}
 8001d0a:	2500      	movs	r5, #0
 8001d0c:	0006      	movs	r6, r0
 8001d0e:	000f      	movs	r7, r1
 8001d10:	002c      	movs	r4, r5
 8001d12:	b085      	sub	sp, #20
 8001d14:	9203      	str	r2, [sp, #12]
 8001d16:	1b3b      	subs	r3, r7, r4
 8001d18:	2b07      	cmp	r3, #7
 8001d1a:	dc10      	bgt.n	8001d3e <canif_sendData+0x36>
 8001d1c:	42bc      	cmp	r4, r7
 8001d1e:	d00b      	beq.n	8001d38 <canif_sendData+0x30>
 8001d20:	b2db      	uxtb	r3, r3
 8001d22:	9300      	str	r3, [sp, #0]
 8001d24:	2300      	movs	r3, #0
 8001d26:	1934      	adds	r4, r6, r4
 8001d28:	001a      	movs	r2, r3
 8001d2a:	9903      	ldr	r1, [sp, #12]
 8001d2c:	480d      	ldr	r0, [pc, #52]	@ (8001d64 <canif_sendData+0x5c>)
 8001d2e:	9401      	str	r4, [sp, #4]
 8001d30:	f000 fab0 	bl	8002294 <can_transmit>
 8001d34:	182d      	adds	r5, r5, r0
 8001d36:	b2ed      	uxtb	r5, r5
 8001d38:	0028      	movs	r0, r5
 8001d3a:	b005      	add	sp, #20
 8001d3c:	bdf0      	pop	{r4, r5, r6, r7, pc}
 8001d3e:	1933      	adds	r3, r6, r4
 8001d40:	9301      	str	r3, [sp, #4]
 8001d42:	2308      	movs	r3, #8
 8001d44:	9300      	str	r3, [sp, #0]
 8001d46:	2300      	movs	r3, #0
 8001d48:	9903      	ldr	r1, [sp, #12]
 8001d4a:	001a      	movs	r2, r3
 8001d4c:	4805      	ldr	r0, [pc, #20]	@ (8001d64 <canif_sendData+0x5c>)
 8001d4e:	f000 faa1 	bl	8002294 <can_transmit>
 8001d52:	3408      	adds	r4, #8
 8001d54:	182d      	adds	r5, r5, r0
 8001d56:	2100      	movs	r1, #0
 8001d58:	2001      	movs	r0, #1
 8001d5a:	b2ed      	uxtb	r5, r5
 8001d5c:	b2e4      	uxtb	r4, r4
 8001d5e:	f7ff fe09 	bl	8001974 <system_delayMs>
 8001d62:	e7d8      	b.n	8001d16 <canif_sendData+0xe>
 8001d64:	40006400 	andmi	r6, r0, r0, lsl #8

08001d68 <canif_getRxDataReady>:
 8001d68:	b510      	push	{r4, lr}
 8001d6a:	4803      	ldr	r0, [pc, #12]	@ (8001d78 <canif_getRxDataReady+0x10>)
 8001d6c:	f000 f882 	bl	8001e74 <cqueue_isEmpty>
 8001d70:	2301      	movs	r3, #1
 8001d72:	4058      	eors	r0, r3
 8001d74:	b2c0      	uxtb	r0, r0
 8001d76:	bd10      	pop	{r4, pc}
 8001d78:	200006ec 	andcs	r0, r0, ip, ror #13

08001d7c <canif_getRxData>:
 8001d7c:	b510      	push	{r4, lr}
 8001d7e:	2828      	cmp	r0, #40	@ 0x28
 8001d80:	d006      	beq.n	8001d90 <canif_getRxData+0x14>
 8001d82:	2829      	cmp	r0, #41	@ 0x29
 8001d84:	d00b      	beq.n	8001d9e <canif_getRxData+0x22>
 8001d86:	4807      	ldr	r0, [pc, #28]	@ (8001da4 <canif_getRxData+0x28>)
 8001d88:	f7ff fe78 	bl	8001a7c <log_pError>
 8001d8c:	2000      	movs	r0, #0
 8001d8e:	e005      	b.n	8001d9c <canif_getRxData+0x20>
 8001d90:	4805      	ldr	r0, [pc, #20]	@ (8001da8 <canif_getRxData+0x2c>)
 8001d92:	f000 f89d 	bl	8001ed0 <cqueue_pop>
 8001d96:	2800      	cmp	r0, #0
 8001d98:	d0f5      	beq.n	8001d86 <canif_getRxData+0xa>
 8001d9a:	2001      	movs	r0, #1
 8001d9c:	bd10      	pop	{r4, pc}
 8001d9e:	4803      	ldr	r0, [pc, #12]	@ (8001dac <canif_getRxData+0x30>)
 8001da0:	e7f7      	b.n	8001d92 <canif_getRxData+0x16>
 8001da2:	46c0      	nop			@ (mov r8, r8)
 8001da4:	08005427 	stmdaeq	r0, {r0, r1, r2, r5, sl, ip, lr}
 8001da8:	200006ec 	andcs	r0, r0, ip, ror #13
 8001dac:	200000d8 	ldrdcs	r0, [r0], -r8

08001db0 <canif_getQueuePointer>:
 8001db0:	0003      	movs	r3, r0
 8001db2:	4804      	ldr	r0, [pc, #16]	@ (8001dc4 <canif_getQueuePointer+0x14>)
 8001db4:	2b28      	cmp	r3, #40	@ 0x28
 8001db6:	d003      	beq.n	8001dc0 <canif_getQueuePointer+0x10>
 8001db8:	4803      	ldr	r0, [pc, #12]	@ (8001dc8 <canif_getQueuePointer+0x18>)
 8001dba:	2b29      	cmp	r3, #41	@ 0x29
 8001dbc:	d000      	beq.n	8001dc0 <canif_getQueuePointer+0x10>
 8001dbe:	2000      	movs	r0, #0
 8001dc0:	4770      	bx	lr
 8001dc2:	46c0      	nop			@ (mov r8, r8)
 8001dc4:	20000700 	andcs	r0, r0, r0, lsl #14
 8001dc8:	200000ec 	andcs	r0, r0, ip, ror #1

08001dcc <canif_clearQueue>:
 8001dcc:	b510      	push	{r4, lr}
 8001dce:	2828      	cmp	r0, #40	@ 0x28
 8001dd0:	d002      	beq.n	8001dd8 <canif_clearQueue+0xc>
 8001dd2:	2829      	cmp	r0, #41	@ 0x29
 8001dd4:	d004      	beq.n	8001de0 <canif_clearQueue+0x14>
 8001dd6:	bd10      	pop	{r4, pc}
 8001dd8:	4802      	ldr	r0, [pc, #8]	@ (8001de4 <canif_clearQueue+0x18>)
 8001dda:	f000 f88e 	bl	8001efa <cqueue_reset>
 8001dde:	e7fa      	b.n	8001dd6 <canif_clearQueue+0xa>
 8001de0:	4801      	ldr	r0, [pc, #4]	@ (8001de8 <canif_clearQueue+0x1c>)
 8001de2:	e7fa      	b.n	8001dda <canif_clearQueue+0xe>
 8001de4:	200006ec 	andcs	r0, r0, ip, ror #13
 8001de8:	200000d8 	ldrdcs	r0, [r0], -r8

08001dec <gpioif_setup>:
 8001dec:	b570      	push	{r4, r5, r6, lr}
 8001dee:	4816      	ldr	r0, [pc, #88]	@ (8001e48 <gpioif_setup+0x5c>)
 8001df0:	f7ff fe14 	bl	8001a1c <log_pInfo>
 8001df4:	2200      	movs	r2, #0
 8001df6:	23c0      	movs	r3, #192	@ 0xc0
 8001df8:	2580      	movs	r5, #128	@ 0x80
 8001dfa:	4c14      	ldr	r4, [pc, #80]	@ (8001e4c <gpioif_setup+0x60>)
 8001dfc:	01ed      	lsls	r5, r5, #7
 8001dfe:	0011      	movs	r1, r2
 8001e00:	0020      	movs	r0, r4
 8001e02:	019b      	lsls	r3, r3, #6
 8001e04:	f000 fb9d 	bl	8002542 <gpio_mode_setup>
 8001e08:	002b      	movs	r3, r5
 8001e0a:	2200      	movs	r2, #0
 8001e0c:	0020      	movs	r0, r4
 8001e0e:	2101      	movs	r1, #1
 8001e10:	f000 fb97 	bl	8002542 <gpio_mode_setup>
 8001e14:	0029      	movs	r1, r5
 8001e16:	0020      	movs	r0, r4
 8001e18:	f000 fb8e 	bl	8002538 <gpio_set>
 8001e1c:	2200      	movs	r2, #0
 8001e1e:	4c0c      	ldr	r4, [pc, #48]	@ (8001e50 <gpioif_setup+0x64>)
 8001e20:	0011      	movs	r1, r2
 8001e22:	0020      	movs	r0, r4
 8001e24:	2380      	movs	r3, #128	@ 0x80
 8001e26:	f000 fb8c 	bl	8002542 <gpio_mode_setup>
 8001e2a:	231a      	movs	r3, #26
 8001e2c:	2200      	movs	r2, #0
 8001e2e:	0020      	movs	r0, r4
 8001e30:	2101      	movs	r1, #1
 8001e32:	f000 fb86 	bl	8002542 <gpio_mode_setup>
 8001e36:	211a      	movs	r1, #26
 8001e38:	0020      	movs	r0, r4
 8001e3a:	f000 fb7f 	bl	800253c <gpio_clear>
 8001e3e:	4805      	ldr	r0, [pc, #20]	@ (8001e54 <gpioif_setup+0x68>)
 8001e40:	f7ff fe04 	bl	8001a4c <log_pSuccess>
 8001e44:	2001      	movs	r0, #1
 8001e46:	bd70      	pop	{r4, r5, r6, pc}
 8001e48:	08005433 	stmdaeq	r0, {r0, r1, r4, r5, sl, ip, lr}
 8001e4c:	48000400 	stmdami	r0, {sl}
 8001e50:	48000800 	stmdami	r0, {fp}
 8001e54:	0800543d 	stmdaeq	r0, {r0, r2, r3, r4, r5, sl, ip, lr}

08001e58 <cqueue_init>:
 8001e58:	b570      	push	{r4, r5, r6, lr}
 8001e5a:	0004      	movs	r4, r0
 8001e5c:	6021      	str	r1, [r4, #0]
 8001e5e:	0008      	movs	r0, r1
 8001e60:	21ff      	movs	r1, #255	@ 0xff
 8001e62:	0015      	movs	r5, r2
 8001e64:	f000 fe0e 	bl	8002a84 <memset>
 8001e68:	2300      	movs	r3, #0
 8001e6a:	6125      	str	r5, [r4, #16]
 8001e6c:	60a3      	str	r3, [r4, #8]
 8001e6e:	60e3      	str	r3, [r4, #12]
 8001e70:	6063      	str	r3, [r4, #4]
 8001e72:	bd70      	pop	{r4, r5, r6, pc}

08001e74 <cqueue_isEmpty>:
 8001e74:	6840      	ldr	r0, [r0, #4]
 8001e76:	4243      	negs	r3, r0
 8001e78:	4158      	adcs	r0, r3
 8001e7a:	b2c0      	uxtb	r0, r0
 8001e7c:	4770      	bx	lr

08001e7e <cqueue_push>:
 8001e7e:	6842      	ldr	r2, [r0, #4]
 8001e80:	6903      	ldr	r3, [r0, #16]
 8001e82:	b510      	push	{r4, lr}
 8001e84:	0004      	movs	r4, r0
 8001e86:	2000      	movs	r0, #0
 8001e88:	429a      	cmp	r2, r3
 8001e8a:	d00d      	beq.n	8001ea8 <cqueue_push+0x2a>
 8001e8c:	68e3      	ldr	r3, [r4, #12]
 8001e8e:	6822      	ldr	r2, [r4, #0]
 8001e90:	1c58      	adds	r0, r3, #1
 8001e92:	60e0      	str	r0, [r4, #12]
 8001e94:	54d1      	strb	r1, [r2, r3]
 8001e96:	68e0      	ldr	r0, [r4, #12]
 8001e98:	6921      	ldr	r1, [r4, #16]
 8001e9a:	f000 ff33 	bl	8002d04 <__aeabi_uidivmod>
 8001e9e:	2001      	movs	r0, #1
 8001ea0:	6863      	ldr	r3, [r4, #4]
 8001ea2:	60e1      	str	r1, [r4, #12]
 8001ea4:	3301      	adds	r3, #1
 8001ea6:	6063      	str	r3, [r4, #4]
 8001ea8:	bd10      	pop	{r4, pc}

08001eaa <cqueue_pushn>:
 8001eaa:	b5f8      	push	{r3, r4, r5, r6, r7, lr}
 8001eac:	0006      	movs	r6, r0
 8001eae:	000f      	movs	r7, r1
 8001eb0:	0014      	movs	r4, r2
 8001eb2:	2500      	movs	r5, #0
 8001eb4:	42ac      	cmp	r4, r5
 8001eb6:	d007      	beq.n	8001ec8 <cqueue_pushn+0x1e>
 8001eb8:	0030      	movs	r0, r6
 8001eba:	5d79      	ldrb	r1, [r7, r5]
 8001ebc:	f7ff ffdf 	bl	8001e7e <cqueue_push>
 8001ec0:	1c6b      	adds	r3, r5, #1
 8001ec2:	2800      	cmp	r0, #0
 8001ec4:	d102      	bne.n	8001ecc <cqueue_pushn+0x22>
 8001ec6:	b2ec      	uxtb	r4, r5
 8001ec8:	0020      	movs	r0, r4
 8001eca:	bdf8      	pop	{r3, r4, r5, r6, r7, pc}
 8001ecc:	001d      	movs	r5, r3
 8001ece:	e7f1      	b.n	8001eb4 <cqueue_pushn+0xa>

08001ed0 <cqueue_pop>:
 8001ed0:	6843      	ldr	r3, [r0, #4]
 8001ed2:	b510      	push	{r4, lr}
 8001ed4:	0004      	movs	r4, r0
 8001ed6:	1e18      	subs	r0, r3, #0
 8001ed8:	d00e      	beq.n	8001ef8 <cqueue_pop+0x28>
 8001eda:	68a3      	ldr	r3, [r4, #8]
 8001edc:	6822      	ldr	r2, [r4, #0]
 8001ede:	1c58      	adds	r0, r3, #1
 8001ee0:	60a0      	str	r0, [r4, #8]
 8001ee2:	5cd3      	ldrb	r3, [r2, r3]
 8001ee4:	700b      	strb	r3, [r1, #0]
 8001ee6:	68a0      	ldr	r0, [r4, #8]
 8001ee8:	6921      	ldr	r1, [r4, #16]
 8001eea:	f000 ff0b 	bl	8002d04 <__aeabi_uidivmod>
 8001eee:	2001      	movs	r0, #1
 8001ef0:	6863      	ldr	r3, [r4, #4]
 8001ef2:	60a1      	str	r1, [r4, #8]
 8001ef4:	3b01      	subs	r3, #1
 8001ef6:	6063      	str	r3, [r4, #4]
 8001ef8:	bd10      	pop	{r4, pc}

08001efa <cqueue_reset>:
 8001efa:	b510      	push	{r4, lr}
 8001efc:	6902      	ldr	r2, [r0, #16]
 8001efe:	0004      	movs	r4, r0
 8001f00:	21ff      	movs	r1, #255	@ 0xff
 8001f02:	6800      	ldr	r0, [r0, #0]
 8001f04:	f000 fdbe 	bl	8002a84 <memset>
 8001f08:	2300      	movs	r3, #0
 8001f0a:	60a3      	str	r3, [r4, #8]
 8001f0c:	60e3      	str	r3, [r4, #12]
 8001f0e:	6063      	str	r3, [r4, #4]
 8001f10:	bd10      	pop	{r4, pc}
	...

08001f14 <flashif_eraseMainApplication>:
 8001f14:	b510      	push	{r4, lr}
 8001f16:	f000 fae9 	bl	80024ec <flash_unlock>
 8001f1a:	4c06      	ldr	r4, [pc, #24]	@ (8001f34 <flashif_eraseMainApplication+0x20>)
 8001f1c:	0020      	movs	r0, r4
 8001f1e:	f000 facb 	bl	80024b8 <flash_erase_page>
 8001f22:	2380      	movs	r3, #128	@ 0x80
 8001f24:	011b      	lsls	r3, r3, #4
 8001f26:	18e4      	adds	r4, r4, r3
 8001f28:	4b03      	ldr	r3, [pc, #12]	@ (8001f38 <flashif_eraseMainApplication+0x24>)
 8001f2a:	429c      	cmp	r4, r3
 8001f2c:	d1f6      	bne.n	8001f1c <flashif_eraseMainApplication+0x8>
 8001f2e:	f000 fae9 	bl	8002504 <flash_lock>
 8001f32:	bd10      	pop	{r4, pc}
 8001f34:	08008000 	stmdaeq	r0, {pc}
 8001f38:	08020000 	stmdaeq	r2, {}	@ <UNPREDICTABLE>

08001f3c <flashif_eraseAppMetaData>:
 8001f3c:	b510      	push	{r4, lr}
 8001f3e:	4c06      	ldr	r4, [pc, #24]	@ (8001f58 <flashif_eraseAppMetaData+0x1c>)
 8001f40:	f000 fad4 	bl	80024ec <flash_unlock>
 8001f44:	0020      	movs	r0, r4
 8001f46:	f000 fab7 	bl	80024b8 <flash_erase_page>
 8001f4a:	0020      	movs	r0, r4
 8001f4c:	4903      	ldr	r1, [pc, #12]	@ (8001f5c <flashif_eraseAppMetaData+0x20>)
 8001f4e:	f000 fae8 	bl	8002522 <flash_program_word>
 8001f52:	f000 fad7 	bl	8002504 <flash_lock>
 8001f56:	bd10      	pop	{r4, pc}
 8001f58:	08007800 	stmdaeq	r0, {fp, ip, sp, lr}
 8001f5c:	deadbeef 	cdple	14, 10, cr11, cr13, cr15, {7}

08001f60 <flashif_writeAppMetaData>:
 8001f60:	b510      	push	{r4, lr}
 8001f62:	0004      	movs	r4, r0
 8001f64:	f000 fac2 	bl	80024ec <flash_unlock>
 8001f68:	6821      	ldr	r1, [r4, #0]
 8001f6a:	480b      	ldr	r0, [pc, #44]	@ (8001f98 <flashif_writeAppMetaData+0x38>)
 8001f6c:	f000 fad9 	bl	8002522 <flash_program_word>
 8001f70:	6861      	ldr	r1, [r4, #4]
 8001f72:	480a      	ldr	r0, [pc, #40]	@ (8001f9c <flashif_writeAppMetaData+0x3c>)
 8001f74:	f000 fad5 	bl	8002522 <flash_program_word>
 8001f78:	68a1      	ldr	r1, [r4, #8]
 8001f7a:	4809      	ldr	r0, [pc, #36]	@ (8001fa0 <flashif_writeAppMetaData+0x40>)
 8001f7c:	f000 fad1 	bl	8002522 <flash_program_word>
 8001f80:	68e1      	ldr	r1, [r4, #12]
 8001f82:	4808      	ldr	r0, [pc, #32]	@ (8001fa4 <flashif_writeAppMetaData+0x44>)
 8001f84:	f000 facd 	bl	8002522 <flash_program_word>
 8001f88:	6921      	ldr	r1, [r4, #16]
 8001f8a:	4807      	ldr	r0, [pc, #28]	@ (8001fa8 <flashif_writeAppMetaData+0x48>)
 8001f8c:	f000 fac9 	bl	8002522 <flash_program_word>
 8001f90:	f000 fab8 	bl	8002504 <flash_lock>
 8001f94:	bd10      	pop	{r4, pc}
 8001f96:	46c0      	nop			@ (mov r8, r8)
 8001f98:	08007800 	stmdaeq	r0, {fp, ip, sp, lr}
 8001f9c:	08007804 	stmdaeq	r0, {r2, fp, ip, sp, lr}
 8001fa0:	08007808 	stmdaeq	r0, {r3, fp, ip, sp, lr}
 8001fa4:	0800780c 	stmdaeq	r0, {r2, r3, fp, ip, sp, lr}
 8001fa8:	08007810 	stmdaeq	r0, {r4, fp, ip, sp, lr}

08001fac <flashif_write>:
 8001fac:	b5f0      	push	{r4, r5, r6, r7, lr}
 8001fae:	b085      	sub	sp, #20
 8001fb0:	9001      	str	r0, [sp, #4]
 8001fb2:	9202      	str	r2, [sp, #8]
 8001fb4:	4b27      	ldr	r3, [pc, #156]	@ (8002054 <flashif_write+0xa8>)
 8001fb6:	9a01      	ldr	r2, [sp, #4]
 8001fb8:	000e      	movs	r6, r1
 8001fba:	2000      	movs	r0, #0
 8001fbc:	429a      	cmp	r2, r3
 8001fbe:	d922      	bls.n	8002006 <flashif_write+0x5a>
 8001fc0:	2303      	movs	r3, #3
 8001fc2:	0015      	movs	r5, r2
 8001fc4:	401d      	ands	r5, r3
 8001fc6:	421a      	tst	r2, r3
 8001fc8:	d11d      	bne.n	8002006 <flashif_write+0x5a>
 8001fca:	2401      	movs	r4, #1
 8001fcc:	f000 fa8e 	bl	80024ec <flash_unlock>
 8001fd0:	0037      	movs	r7, r6
 8001fd2:	4264      	negs	r4, r4
 8001fd4:	9a02      	ldr	r2, [sp, #8]
 8001fd6:	1d2b      	adds	r3, r5, #4
 8001fd8:	9303      	str	r3, [sp, #12]
 8001fda:	4293      	cmp	r3, r2
 8001fdc:	d915      	bls.n	800200a <flashif_write+0x5e>
 8001fde:	4295      	cmp	r5, r2
 8001fe0:	d00e      	beq.n	8002000 <flashif_write+0x54>
 8001fe2:	1b53      	subs	r3, r2, r5
 8001fe4:	2b02      	cmp	r3, #2
 8001fe6:	d023      	beq.n	8002030 <flashif_write+0x84>
 8001fe8:	2b03      	cmp	r3, #3
 8001fea:	d028      	beq.n	800203e <flashif_write+0x92>
 8001fec:	2b01      	cmp	r3, #1
 8001fee:	d102      	bne.n	8001ff6 <flashif_write+0x4a>
 8001ff0:	5d73      	ldrb	r3, [r6, r5]
 8001ff2:	4c19      	ldr	r4, [pc, #100]	@ (8002058 <flashif_write+0xac>)
 8001ff4:	431c      	orrs	r4, r3
 8001ff6:	9b01      	ldr	r3, [sp, #4]
 8001ff8:	0021      	movs	r1, r4
 8001ffa:	18e8      	adds	r0, r5, r3
 8001ffc:	f000 fa91 	bl	8002522 <flash_program_word>
 8002000:	f000 fa80 	bl	8002504 <flash_lock>
 8002004:	2001      	movs	r0, #1
 8002006:	b005      	add	sp, #20
 8002008:	bdf0      	pop	{r4, r5, r6, r7, pc}
 800200a:	787c      	ldrb	r4, [r7, #1]
 800200c:	78bb      	ldrb	r3, [r7, #2]
 800200e:	0224      	lsls	r4, r4, #8
 8002010:	041b      	lsls	r3, r3, #16
 8002012:	431c      	orrs	r4, r3
 8002014:	783b      	ldrb	r3, [r7, #0]
 8002016:	431c      	orrs	r4, r3
 8002018:	78fb      	ldrb	r3, [r7, #3]
 800201a:	061b      	lsls	r3, r3, #24
 800201c:	431c      	orrs	r4, r3
 800201e:	9b01      	ldr	r3, [sp, #4]
 8002020:	0021      	movs	r1, r4
 8002022:	1b98      	subs	r0, r3, r6
 8002024:	19c0      	adds	r0, r0, r7
 8002026:	f000 fa7c 	bl	8002522 <flash_program_word>
 800202a:	3704      	adds	r7, #4
 800202c:	9d03      	ldr	r5, [sp, #12]
 800202e:	e7d1      	b.n	8001fd4 <flashif_write+0x28>
 8002030:	1973      	adds	r3, r6, r5
 8002032:	785b      	ldrb	r3, [r3, #1]
 8002034:	5d72      	ldrb	r2, [r6, r5]
 8002036:	021b      	lsls	r3, r3, #8
 8002038:	4c08      	ldr	r4, [pc, #32]	@ (800205c <flashif_write+0xb0>)
 800203a:	4313      	orrs	r3, r2
 800203c:	e7da      	b.n	8001ff4 <flashif_write+0x48>
 800203e:	24ff      	movs	r4, #255	@ 0xff
 8002040:	1972      	adds	r2, r6, r5
 8002042:	7853      	ldrb	r3, [r2, #1]
 8002044:	7892      	ldrb	r2, [r2, #2]
 8002046:	021b      	lsls	r3, r3, #8
 8002048:	0412      	lsls	r2, r2, #16
 800204a:	4313      	orrs	r3, r2
 800204c:	5d72      	ldrb	r2, [r6, r5]
 800204e:	0624      	lsls	r4, r4, #24
 8002050:	4313      	orrs	r3, r2
 8002052:	e7cf      	b.n	8001ff4 <flashif_write+0x48>
 8002054:	08007fff 	stmdaeq	r0, {r0, r1, r2, r3, r4, r5, r6, r7, r8, r9, sl, fp, ip, sp, lr}
 8002058:	ffffff00 			@ <UNDEFINED> instruction: 0xffffff00
 800205c:	ffff0000 			@ <UNDEFINED> instruction: 0xffff0000

08002060 <can_reset>:
 8002060:	4b03      	ldr	r3, [pc, #12]	@ (8002070 <can_reset+0x10>)
 8002062:	b510      	push	{r4, lr}
 8002064:	4298      	cmp	r0, r3
 8002066:	d102      	bne.n	800206e <can_reset+0xe>
 8002068:	4802      	ldr	r0, [pc, #8]	@ (8002074 <can_reset+0x14>)
 800206a:	f000 fbef 	bl	800284c <rcc_periph_reset_pulse>
 800206e:	bd10      	pop	{r4, pc}
 8002070:	40006400 	andmi	r6, r0, r0, lsl #8
 8002074:	00000219 	andeq	r0, r0, r9, lsl r2

08002078 <can_init>:
 8002078:	b5f0      	push	{r4, r5, r6, r7, lr}
 800207a:	b089      	sub	sp, #36	@ 0x24
 800207c:	0004      	movs	r4, r0
 800207e:	a80e      	add	r0, sp, #56	@ 0x38
 8002080:	7800      	ldrb	r0, [r0, #0]
 8002082:	2502      	movs	r5, #2
 8002084:	9001      	str	r0, [sp, #4]
 8002086:	a80f      	add	r0, sp, #60	@ 0x3c
 8002088:	7800      	ldrb	r0, [r0, #0]
 800208a:	2601      	movs	r6, #1
 800208c:	9002      	str	r0, [sp, #8]
 800208e:	a810      	add	r0, sp, #64	@ 0x40
 8002090:	7800      	ldrb	r0, [r0, #0]
 8002092:	9300      	str	r3, [sp, #0]
 8002094:	9003      	str	r0, [sp, #12]
 8002096:	a815      	add	r0, sp, #84	@ 0x54
 8002098:	7800      	ldrb	r0, [r0, #0]
 800209a:	ab06      	add	r3, sp, #24
 800209c:	9004      	str	r0, [sp, #16]
 800209e:	2021      	movs	r0, #33	@ 0x21
 80020a0:	18c0      	adds	r0, r0, r3
 80020a2:	7fc0      	ldrb	r0, [r0, #31]
 80020a4:	9005      	str	r0, [sp, #20]
 80020a6:	6820      	ldr	r0, [r4, #0]
 80020a8:	43a8      	bics	r0, r5
 80020aa:	6020      	str	r0, [r4, #0]
 80020ac:	6820      	ldr	r0, [r4, #0]
 80020ae:	4d44      	ldr	r5, [pc, #272]	@ (80021c0 <can_init+0x148>)
 80020b0:	4330      	orrs	r0, r6
 80020b2:	6020      	str	r0, [r4, #0]
 80020b4:	9507      	str	r5, [sp, #28]
 80020b6:	9807      	ldr	r0, [sp, #28]
 80020b8:	1d27      	adds	r7, r4, #4
 80020ba:	3801      	subs	r0, #1
 80020bc:	9007      	str	r0, [sp, #28]
 80020be:	2800      	cmp	r0, #0
 80020c0:	d002      	beq.n	80020c8 <can_init+0x50>
 80020c2:	6860      	ldr	r0, [r4, #4]
 80020c4:	4230      	tst	r0, r6
 80020c6:	d0f6      	beq.n	80020b6 <can_init+0x3e>
 80020c8:	6860      	ldr	r0, [r4, #4]
 80020ca:	2601      	movs	r6, #1
 80020cc:	4684      	mov	ip, r0
 80020ce:	4663      	mov	r3, ip
 80020d0:	0030      	movs	r0, r6
 80020d2:	4233      	tst	r3, r6
 80020d4:	d056      	beq.n	8002184 <can_init+0x10c>
 80020d6:	2000      	movs	r0, #0
 80020d8:	61e0      	str	r0, [r4, #28]
 80020da:	3080      	adds	r0, #128	@ 0x80
 80020dc:	2900      	cmp	r1, #0
 80020de:	d053      	beq.n	8002188 <can_init+0x110>
 80020e0:	6821      	ldr	r1, [r4, #0]
 80020e2:	4301      	orrs	r1, r0
 80020e4:	6021      	str	r1, [r4, #0]
 80020e6:	2140      	movs	r1, #64	@ 0x40
 80020e8:	2a00      	cmp	r2, #0
 80020ea:	d050      	beq.n	800218e <can_init+0x116>
 80020ec:	6822      	ldr	r2, [r4, #0]
 80020ee:	430a      	orrs	r2, r1
 80020f0:	9b00      	ldr	r3, [sp, #0]
 80020f2:	6022      	str	r2, [r4, #0]
 80020f4:	2220      	movs	r2, #32
 80020f6:	2b00      	cmp	r3, #0
 80020f8:	d04c      	beq.n	8002194 <can_init+0x11c>
 80020fa:	6823      	ldr	r3, [r4, #0]
 80020fc:	4313      	orrs	r3, r2
 80020fe:	6023      	str	r3, [r4, #0]
 8002100:	9b01      	ldr	r3, [sp, #4]
 8002102:	2210      	movs	r2, #16
 8002104:	2b00      	cmp	r3, #0
 8002106:	d048      	beq.n	800219a <can_init+0x122>
 8002108:	6823      	ldr	r3, [r4, #0]
 800210a:	4313      	orrs	r3, r2
 800210c:	6023      	str	r3, [r4, #0]
 800210e:	9b02      	ldr	r3, [sp, #8]
 8002110:	2208      	movs	r2, #8
 8002112:	2b00      	cmp	r3, #0
 8002114:	d044      	beq.n	80021a0 <can_init+0x128>
 8002116:	6823      	ldr	r3, [r4, #0]
 8002118:	4313      	orrs	r3, r2
 800211a:	9a03      	ldr	r2, [sp, #12]
 800211c:	6023      	str	r3, [r4, #0]
 800211e:	2304      	movs	r3, #4
 8002120:	2a00      	cmp	r2, #0
 8002122:	d040      	beq.n	80021a6 <can_init+0x12e>
 8002124:	6822      	ldr	r2, [r4, #0]
 8002126:	4313      	orrs	r3, r2
 8002128:	6023      	str	r3, [r4, #0]
 800212a:	9b05      	ldr	r3, [sp, #20]
 800212c:	2b00      	cmp	r3, #0
 800212e:	d03e      	beq.n	80021ae <can_init+0x136>
 8002130:	2380      	movs	r3, #128	@ 0x80
 8002132:	69e2      	ldr	r2, [r4, #28]
 8002134:	061b      	lsls	r3, r3, #24
 8002136:	4313      	orrs	r3, r2
 8002138:	61e3      	str	r3, [r4, #28]
 800213a:	9b04      	ldr	r3, [sp, #16]
 800213c:	2b00      	cmp	r3, #0
 800213e:	d03a      	beq.n	80021b6 <can_init+0x13e>
 8002140:	2380      	movs	r3, #128	@ 0x80
 8002142:	69e2      	ldr	r2, [r4, #28]
 8002144:	05db      	lsls	r3, r3, #23
 8002146:	4313      	orrs	r3, r2
 8002148:	61e3      	str	r3, [r4, #28]
 800214a:	9b14      	ldr	r3, [sp, #80]	@ 0x50
 800214c:	9913      	ldr	r1, [sp, #76]	@ 0x4c
 800214e:	3b01      	subs	r3, #1
 8002150:	059b      	lsls	r3, r3, #22
 8002152:	0d9b      	lsrs	r3, r3, #22
 8002154:	430b      	orrs	r3, r1
 8002156:	9912      	ldr	r1, [sp, #72]	@ 0x48
 8002158:	69e2      	ldr	r2, [r4, #28]
 800215a:	430b      	orrs	r3, r1
 800215c:	9911      	ldr	r1, [sp, #68]	@ 0x44
 800215e:	430b      	orrs	r3, r1
 8002160:	4313      	orrs	r3, r2
 8002162:	2201      	movs	r2, #1
 8002164:	61e3      	str	r3, [r4, #28]
 8002166:	6823      	ldr	r3, [r4, #0]
 8002168:	4393      	bics	r3, r2
 800216a:	6023      	str	r3, [r4, #0]
 800216c:	9507      	str	r5, [sp, #28]
 800216e:	9b07      	ldr	r3, [sp, #28]
 8002170:	3b01      	subs	r3, #1
 8002172:	9307      	str	r3, [sp, #28]
 8002174:	2b00      	cmp	r3, #0
 8002176:	d002      	beq.n	800217e <can_init+0x106>
 8002178:	683b      	ldr	r3, [r7, #0]
 800217a:	4213      	tst	r3, r2
 800217c:	d1f7      	bne.n	800216e <can_init+0xf6>
 800217e:	2301      	movs	r3, #1
 8002180:	6860      	ldr	r0, [r4, #4]
 8002182:	4018      	ands	r0, r3
 8002184:	b009      	add	sp, #36	@ 0x24
 8002186:	bdf0      	pop	{r4, r5, r6, r7, pc}
 8002188:	6821      	ldr	r1, [r4, #0]
 800218a:	4381      	bics	r1, r0
 800218c:	e7aa      	b.n	80020e4 <can_init+0x6c>
 800218e:	6822      	ldr	r2, [r4, #0]
 8002190:	438a      	bics	r2, r1
 8002192:	e7ad      	b.n	80020f0 <can_init+0x78>
 8002194:	6823      	ldr	r3, [r4, #0]
 8002196:	4393      	bics	r3, r2
 8002198:	e7b1      	b.n	80020fe <can_init+0x86>
 800219a:	6823      	ldr	r3, [r4, #0]
 800219c:	4393      	bics	r3, r2
 800219e:	e7b5      	b.n	800210c <can_init+0x94>
 80021a0:	6823      	ldr	r3, [r4, #0]
 80021a2:	4393      	bics	r3, r2
 80021a4:	e7b9      	b.n	800211a <can_init+0xa2>
 80021a6:	6822      	ldr	r2, [r4, #0]
 80021a8:	439a      	bics	r2, r3
 80021aa:	6022      	str	r2, [r4, #0]
 80021ac:	e7bd      	b.n	800212a <can_init+0xb2>
 80021ae:	69e3      	ldr	r3, [r4, #28]
 80021b0:	005b      	lsls	r3, r3, #1
 80021b2:	085b      	lsrs	r3, r3, #1
 80021b4:	e7c0      	b.n	8002138 <can_init+0xc0>
 80021b6:	69e3      	ldr	r3, [r4, #28]
 80021b8:	4a02      	ldr	r2, [pc, #8]	@ (80021c4 <can_init+0x14c>)
 80021ba:	4013      	ands	r3, r2
 80021bc:	e7c4      	b.n	8002148 <can_init+0xd0>
 80021be:	46c0      	nop			@ (mov r8, r8)
 80021c0:	0000ffff 	strdeq	pc, [r0], -pc	@ <UNPREDICTABLE>
 80021c4:	bfffffff 	svclt	0x00ffffff

080021c8 <can_filter_init>:
 80021c8:	b5f7      	push	{r0, r1, r2, r4, r5, r6, r7, lr}
 80021ca:	469c      	mov	ip, r3
 80021cc:	ab0a      	add	r3, sp, #40	@ 0x28
 80021ce:	781b      	ldrb	r3, [r3, #0]
 80021d0:	4d1d      	ldr	r5, [pc, #116]	@ (8002248 <can_filter_init+0x80>)
 80021d2:	9301      	str	r3, [sp, #4]
 80021d4:	2301      	movs	r3, #1
 80021d6:	001c      	movs	r4, r3
 80021d8:	4084      	lsls	r4, r0
 80021da:	682e      	ldr	r6, [r5, #0]
 80021dc:	4333      	orrs	r3, r6
 80021de:	4e1b      	ldr	r6, [pc, #108]	@ (800224c <can_filter_init+0x84>)
 80021e0:	602b      	str	r3, [r5, #0]
 80021e2:	6837      	ldr	r7, [r6, #0]
 80021e4:	43e3      	mvns	r3, r4
 80021e6:	43a7      	bics	r7, r4
 80021e8:	6037      	str	r7, [r6, #0]
 80021ea:	4f19      	ldr	r7, [pc, #100]	@ (8002250 <can_filter_init+0x88>)
 80021ec:	2900      	cmp	r1, #0
 80021ee:	d021      	beq.n	8002234 <can_filter_init+0x6c>
 80021f0:	6839      	ldr	r1, [r7, #0]
 80021f2:	4321      	orrs	r1, r4
 80021f4:	6039      	str	r1, [r7, #0]
 80021f6:	4917      	ldr	r1, [pc, #92]	@ (8002254 <can_filter_init+0x8c>)
 80021f8:	2a00      	cmp	r2, #0
 80021fa:	d01e      	beq.n	800223a <can_filter_init+0x72>
 80021fc:	680a      	ldr	r2, [r1, #0]
 80021fe:	4322      	orrs	r2, r4
 8002200:	600a      	str	r2, [r1, #0]
 8002202:	4a15      	ldr	r2, [pc, #84]	@ (8002258 <can_filter_init+0x90>)
 8002204:	9909      	ldr	r1, [sp, #36]	@ 0x24
 8002206:	1880      	adds	r0, r0, r2
 8002208:	4662      	mov	r2, ip
 800220a:	00c0      	lsls	r0, r0, #3
 800220c:	6002      	str	r2, [r0, #0]
 800220e:	9a08      	ldr	r2, [sp, #32]
 8002210:	6042      	str	r2, [r0, #4]
 8002212:	4a12      	ldr	r2, [pc, #72]	@ (800225c <can_filter_init+0x94>)
 8002214:	2900      	cmp	r1, #0
 8002216:	d013      	beq.n	8002240 <can_filter_init+0x78>
 8002218:	6813      	ldr	r3, [r2, #0]
 800221a:	4323      	orrs	r3, r4
 800221c:	6013      	str	r3, [r2, #0]
 800221e:	9b01      	ldr	r3, [sp, #4]
 8002220:	2b00      	cmp	r3, #0
 8002222:	d002      	beq.n	800222a <can_filter_init+0x62>
 8002224:	6833      	ldr	r3, [r6, #0]
 8002226:	4323      	orrs	r3, r4
 8002228:	6033      	str	r3, [r6, #0]
 800222a:	2201      	movs	r2, #1
 800222c:	682b      	ldr	r3, [r5, #0]
 800222e:	4393      	bics	r3, r2
 8002230:	602b      	str	r3, [r5, #0]
 8002232:	bdf7      	pop	{r0, r1, r2, r4, r5, r6, r7, pc}
 8002234:	6839      	ldr	r1, [r7, #0]
 8002236:	4019      	ands	r1, r3
 8002238:	e7dc      	b.n	80021f4 <can_filter_init+0x2c>
 800223a:	680a      	ldr	r2, [r1, #0]
 800223c:	401a      	ands	r2, r3
 800223e:	e7df      	b.n	8002200 <can_filter_init+0x38>
 8002240:	6811      	ldr	r1, [r2, #0]
 8002242:	400b      	ands	r3, r1
 8002244:	e7ea      	b.n	800221c <can_filter_init+0x54>
 8002246:	46c0      	nop			@ (mov r8, r8)
 8002248:	40006600 	andmi	r6, r0, r0, lsl #12
 800224c:	4000661c 	andmi	r6, r0, ip, lsl r6
 8002250:	4000660c 	andmi	r6, r0, ip, lsl #12
 8002254:	40006604 	andmi	r6, r0, r4, lsl #12
 8002258:	08000cc8 	stmdaeq	r0, {r3, r6, r7, sl, fp}
 800225c:	40006614 	andmi	r6, r0, r4, lsl r6

08002260 <can_filter_id_mask_16bit_init>:
 8002260:	b530      	push	{r4, r5, lr}
 8002262:	b085      	sub	sp, #20
 8002264:	ac08      	add	r4, sp, #32
 8002266:	8824      	ldrh	r4, [r4, #0]
 8002268:	0412      	lsls	r2, r2, #16
 800226a:	430a      	orrs	r2, r1
 800226c:	0424      	lsls	r4, r4, #16
 800226e:	431c      	orrs	r4, r3
 8002270:	0013      	movs	r3, r2
 8002272:	2200      	movs	r2, #0
 8002274:	ad0a      	add	r5, sp, #40	@ 0x28
 8002276:	782d      	ldrb	r5, [r5, #0]
 8002278:	9909      	ldr	r1, [sp, #36]	@ 0x24
 800227a:	9502      	str	r5, [sp, #8]
 800227c:	9101      	str	r1, [sp, #4]
 800227e:	9400      	str	r4, [sp, #0]
 8002280:	0011      	movs	r1, r2
 8002282:	f7ff ffa1 	bl	80021c8 <can_filter_init>
 8002286:	b005      	add	sp, #20
 8002288:	bd30      	pop	{r4, r5, pc}

0800228a <can_enable_irq>:
 800228a:	6943      	ldr	r3, [r0, #20]
 800228c:	430b      	orrs	r3, r1
 800228e:	6143      	str	r3, [r0, #20]
 8002290:	4770      	bx	lr
	...

08002294 <can_transmit>:
 8002294:	b5f7      	push	{r0, r1, r2, r4, r5, r6, r7, lr}
 8002296:	0007      	movs	r7, r0
 8002298:	9301      	str	r3, [sp, #4]
 800229a:	ab08      	add	r3, sp, #32
 800229c:	781b      	ldrb	r3, [r3, #0]
 800229e:	0010      	movs	r0, r2
 80022a0:	469c      	mov	ip, r3
 80022a2:	68bb      	ldr	r3, [r7, #8]
 80022a4:	9e09      	ldr	r6, [sp, #36]	@ 0x24
 80022a6:	015b      	lsls	r3, r3, #5
 80022a8:	d428      	bmi.n	80022fc <can_transmit+0x68>
 80022aa:	68bb      	ldr	r3, [r7, #8]
 80022ac:	011b      	lsls	r3, r3, #4
 80022ae:	d429      	bmi.n	8002304 <can_transmit+0x70>
 80022b0:	68bb      	ldr	r3, [r7, #8]
 80022b2:	00db      	lsls	r3, r3, #3
 80022b4:	d554      	bpl.n	8002360 <can_transmit+0xcc>
 80022b6:	23d0      	movs	r3, #208	@ 0xd0
 80022b8:	2202      	movs	r2, #2
 80022ba:	005b      	lsls	r3, r3, #1
 80022bc:	19db      	adds	r3, r3, r7
 80022be:	2800      	cmp	r0, #0
 80022c0:	d024      	beq.n	800230c <can_transmit+0x78>
 80022c2:	00c8      	lsls	r0, r1, #3
 80022c4:	2104      	movs	r1, #4
 80022c6:	4301      	orrs	r1, r0
 80022c8:	6019      	str	r1, [r3, #0]
 80022ca:	9901      	ldr	r1, [sp, #4]
 80022cc:	2900      	cmp	r1, #0
 80022ce:	d003      	beq.n	80022d8 <can_transmit+0x44>
 80022d0:	2102      	movs	r1, #2
 80022d2:	6818      	ldr	r0, [r3, #0]
 80022d4:	4301      	orrs	r1, r0
 80022d6:	6019      	str	r1, [r3, #0]
 80022d8:	210f      	movs	r1, #15
 80022da:	4667      	mov	r7, ip
 80022dc:	6858      	ldr	r0, [r3, #4]
 80022de:	4388      	bics	r0, r1
 80022e0:	6058      	str	r0, [r3, #4]
 80022e2:	6858      	ldr	r0, [r3, #4]
 80022e4:	4039      	ands	r1, r7
 80022e6:	4301      	orrs	r1, r0
 80022e8:	1e78      	subs	r0, r7, #1
 80022ea:	6059      	str	r1, [r3, #4]
 80022ec:	2807      	cmp	r0, #7
 80022ee:	d82f      	bhi.n	8002350 <can_transmit+0xbc>
 80022f0:	f000 fc64 	bl	8002bbc <__gnu_thumb1_case_uqi>
 80022f4:	1e20252a 	cfsh64ne	mvdx2, mvdx0, #26
 80022f8:	0e10151a 	mrceq	5, 0, r1, cr0, cr10, {0}
 80022fc:	23c0      	movs	r3, #192	@ 0xc0
 80022fe:	2200      	movs	r2, #0
 8002300:	005b      	lsls	r3, r3, #1
 8002302:	e7db      	b.n	80022bc <can_transmit+0x28>
 8002304:	23c8      	movs	r3, #200	@ 0xc8
 8002306:	2201      	movs	r2, #1
 8002308:	005b      	lsls	r3, r3, #1
 800230a:	e7d7      	b.n	80022bc <can_transmit+0x28>
 800230c:	0549      	lsls	r1, r1, #21
 800230e:	e7db      	b.n	80022c8 <can_transmit+0x34>
 8002310:	79f4      	ldrb	r4, [r6, #7]
 8002312:	0624      	lsls	r4, r4, #24
 8002314:	79b1      	ldrb	r1, [r6, #6]
 8002316:	4814      	ldr	r0, [pc, #80]	@ (8002368 <can_transmit+0xd4>)
 8002318:	0409      	lsls	r1, r1, #16
 800231a:	4004      	ands	r4, r0
 800231c:	430c      	orrs	r4, r1
 800231e:	7971      	ldrb	r1, [r6, #5]
 8002320:	4812      	ldr	r0, [pc, #72]	@ (800236c <can_transmit+0xd8>)
 8002322:	0209      	lsls	r1, r1, #8
 8002324:	4004      	ands	r4, r0
 8002326:	430c      	orrs	r4, r1
 8002328:	20ff      	movs	r0, #255	@ 0xff
 800232a:	7931      	ldrb	r1, [r6, #4]
 800232c:	4384      	bics	r4, r0
 800232e:	430c      	orrs	r4, r1
 8002330:	78f5      	ldrb	r5, [r6, #3]
 8002332:	062d      	lsls	r5, r5, #24
 8002334:	78b1      	ldrb	r1, [r6, #2]
 8002336:	480c      	ldr	r0, [pc, #48]	@ (8002368 <can_transmit+0xd4>)
 8002338:	0409      	lsls	r1, r1, #16
 800233a:	4005      	ands	r5, r0
 800233c:	430d      	orrs	r5, r1
 800233e:	7871      	ldrb	r1, [r6, #1]
 8002340:	480a      	ldr	r0, [pc, #40]	@ (800236c <can_transmit+0xd8>)
 8002342:	0209      	lsls	r1, r1, #8
 8002344:	4005      	ands	r5, r0
 8002346:	430d      	orrs	r5, r1
 8002348:	20ff      	movs	r0, #255	@ 0xff
 800234a:	7831      	ldrb	r1, [r6, #0]
 800234c:	4385      	bics	r5, r0
 800234e:	430d      	orrs	r5, r1
 8002350:	2101      	movs	r1, #1
 8002352:	609d      	str	r5, [r3, #8]
 8002354:	60dc      	str	r4, [r3, #12]
 8002356:	6818      	ldr	r0, [r3, #0]
 8002358:	4301      	orrs	r1, r0
 800235a:	6019      	str	r1, [r3, #0]
 800235c:	0010      	movs	r0, r2
 800235e:	bdfe      	pop	{r1, r2, r3, r4, r5, r6, r7, pc}
 8002360:	2201      	movs	r2, #1
 8002362:	4252      	negs	r2, r2
 8002364:	e7fa      	b.n	800235c <can_transmit+0xc8>
 8002366:	46c0      	nop			@ (mov r8, r8)
 8002368:	ff00ffff 			@ <UNDEFINED> instruction: 0xff00ffff
 800236c:	ffff00ff 			@ <UNDEFINED> instruction: 0xffff00ff

08002370 <can_fifo_release>:
 8002370:	2320      	movs	r3, #32
 8002372:	2900      	cmp	r1, #0
 8002374:	d103      	bne.n	800237e <can_fifo_release+0xe>
 8002376:	68c2      	ldr	r2, [r0, #12]
 8002378:	4313      	orrs	r3, r2
 800237a:	60c3      	str	r3, [r0, #12]
 800237c:	4770      	bx	lr
 800237e:	6902      	ldr	r2, [r0, #16]
 8002380:	4313      	orrs	r3, r2
 8002382:	6103      	str	r3, [r0, #16]
 8002384:	e7fa      	b.n	800237c <can_fifo_release+0xc>

08002386 <can_receive>:
 8002386:	b5f7      	push	{r0, r1, r2, r4, r5, r6, r7, lr}
 8002388:	4694      	mov	ip, r2
 800238a:	22d8      	movs	r2, #216	@ 0xd8
 800238c:	466d      	mov	r5, sp
 800238e:	0052      	lsls	r2, r2, #1
 8002390:	9200      	str	r2, [sp, #0]
 8002392:	3210      	adds	r2, #16
 8002394:	9201      	str	r2, [sp, #4]
 8002396:	008a      	lsls	r2, r1, #2
 8002398:	5952      	ldr	r2, [r2, r5]
 800239a:	2604      	movs	r6, #4
 800239c:	1882      	adds	r2, r0, r2
 800239e:	6817      	ldr	r7, [r2, #0]
 80023a0:	9c0c      	ldr	r4, [sp, #48]	@ 0x30
 80023a2:	003d      	movs	r5, r7
 80023a4:	4035      	ands	r5, r6
 80023a6:	4237      	tst	r7, r6
 80023a8:	d034      	beq.n	8002414 <can_receive+0x8e>
 80023aa:	9d08      	ldr	r5, [sp, #32]
 80023ac:	3e03      	subs	r6, #3
 80023ae:	702e      	strb	r6, [r5, #0]
 80023b0:	6815      	ldr	r5, [r2, #0]
 80023b2:	08ed      	lsrs	r5, r5, #3
 80023b4:	601d      	str	r5, [r3, #0]
 80023b6:	6813      	ldr	r3, [r2, #0]
 80023b8:	9d09      	ldr	r5, [sp, #36]	@ 0x24
 80023ba:	079b      	lsls	r3, r3, #30
 80023bc:	0fdb      	lsrs	r3, r3, #31
 80023be:	702b      	strb	r3, [r5, #0]
 80023c0:	6853      	ldr	r3, [r2, #4]
 80023c2:	9d0a      	ldr	r5, [sp, #40]	@ 0x28
 80023c4:	0a1b      	lsrs	r3, r3, #8
 80023c6:	702b      	strb	r3, [r5, #0]
 80023c8:	250f      	movs	r5, #15
 80023ca:	6853      	ldr	r3, [r2, #4]
 80023cc:	402b      	ands	r3, r5
 80023ce:	9d0b      	ldr	r5, [sp, #44]	@ 0x2c
 80023d0:	702b      	strb	r3, [r5, #0]
 80023d2:	9b0d      	ldr	r3, [sp, #52]	@ 0x34
 80023d4:	2b00      	cmp	r3, #0
 80023d6:	d003      	beq.n	80023e0 <can_receive+0x5a>
 80023d8:	6853      	ldr	r3, [r2, #4]
 80023da:	9d0d      	ldr	r5, [sp, #52]	@ 0x34
 80023dc:	0c1b      	lsrs	r3, r3, #16
 80023de:	802b      	strh	r3, [r5, #0]
 80023e0:	6895      	ldr	r5, [r2, #8]
 80023e2:	68d3      	ldr	r3, [r2, #12]
 80023e4:	042a      	lsls	r2, r5, #16
 80023e6:	0e12      	lsrs	r2, r2, #24
 80023e8:	7062      	strb	r2, [r4, #1]
 80023ea:	022a      	lsls	r2, r5, #8
 80023ec:	0e12      	lsrs	r2, r2, #24
 80023ee:	70a2      	strb	r2, [r4, #2]
 80023f0:	041a      	lsls	r2, r3, #16
 80023f2:	0e12      	lsrs	r2, r2, #24
 80023f4:	7123      	strb	r3, [r4, #4]
 80023f6:	7162      	strb	r2, [r4, #5]
 80023f8:	021a      	lsls	r2, r3, #8
 80023fa:	0e1b      	lsrs	r3, r3, #24
 80023fc:	71e3      	strb	r3, [r4, #7]
 80023fe:	4663      	mov	r3, ip
 8002400:	7025      	strb	r5, [r4, #0]
 8002402:	0e12      	lsrs	r2, r2, #24
 8002404:	0e2d      	lsrs	r5, r5, #24
 8002406:	70e5      	strb	r5, [r4, #3]
 8002408:	71a2      	strb	r2, [r4, #6]
 800240a:	2b00      	cmp	r3, #0
 800240c:	d001      	beq.n	8002412 <can_receive+0x8c>
 800240e:	f7ff ffaf 	bl	8002370 <can_fifo_release>
 8002412:	bdf7      	pop	{r0, r1, r2, r4, r5, r6, r7, pc}
 8002414:	9e08      	ldr	r6, [sp, #32]
 8002416:	7035      	strb	r5, [r6, #0]
 8002418:	6815      	ldr	r5, [r2, #0]
 800241a:	0d6d      	lsrs	r5, r5, #21
 800241c:	e7ca      	b.n	80023b4 <can_receive+0x2e>
	...

08002420 <crc_reset>:
 8002420:	2301      	movs	r3, #1
 8002422:	4a02      	ldr	r2, [pc, #8]	@ (800242c <crc_reset+0xc>)
 8002424:	6811      	ldr	r1, [r2, #0]
 8002426:	430b      	orrs	r3, r1
 8002428:	6013      	str	r3, [r2, #0]
 800242a:	4770      	bx	lr
 800242c:	40023008 	andmi	r3, r2, r8

08002430 <crc_reverse_output_disable>:
 8002430:	2180      	movs	r1, #128	@ 0x80
 8002432:	4a02      	ldr	r2, [pc, #8]	@ (800243c <crc_reverse_output_disable+0xc>)
 8002434:	6813      	ldr	r3, [r2, #0]
 8002436:	438b      	bics	r3, r1
 8002438:	6013      	str	r3, [r2, #0]
 800243a:	4770      	bx	lr
 800243c:	40023008 	andmi	r3, r2, r8

08002440 <crc_set_reverse_input>:
 8002440:	2160      	movs	r1, #96	@ 0x60
 8002442:	4a03      	ldr	r2, [pc, #12]	@ (8002450 <crc_set_reverse_input+0x10>)
 8002444:	6813      	ldr	r3, [r2, #0]
 8002446:	438b      	bics	r3, r1
 8002448:	4303      	orrs	r3, r0
 800244a:	6013      	str	r3, [r2, #0]
 800244c:	4770      	bx	lr
 800244e:	46c0      	nop			@ (mov r8, r8)
 8002450:	40023008 	andmi	r3, r2, r8

08002454 <crc_set_polysize>:
 8002454:	2118      	movs	r1, #24
 8002456:	4a03      	ldr	r2, [pc, #12]	@ (8002464 <crc_set_polysize+0x10>)
 8002458:	6813      	ldr	r3, [r2, #0]
 800245a:	438b      	bics	r3, r1
 800245c:	4303      	orrs	r3, r0
 800245e:	6013      	str	r3, [r2, #0]
 8002460:	4770      	bx	lr
 8002462:	46c0      	nop			@ (mov r8, r8)
 8002464:	40023008 	andmi	r3, r2, r8

08002468 <crc_set_polynomial>:
 8002468:	4b01      	ldr	r3, [pc, #4]	@ (8002470 <crc_set_polynomial+0x8>)
 800246a:	6018      	str	r0, [r3, #0]
 800246c:	4770      	bx	lr
 800246e:	46c0      	nop			@ (mov r8, r8)
 8002470:	40023014 	andmi	r3, r2, r4, lsl r0

08002474 <crc_set_initial>:
 8002474:	4b01      	ldr	r3, [pc, #4]	@ (800247c <crc_set_initial+0x8>)
 8002476:	6018      	str	r0, [r3, #0]
 8002478:	4770      	bx	lr
 800247a:	46c0      	nop			@ (mov r8, r8)
 800247c:	40023010 	andmi	r3, r2, r0, lsl r0

08002480 <flash_get_status_flags>:
 8002480:	4b02      	ldr	r3, [pc, #8]	@ (800248c <flash_get_status_flags+0xc>)
 8002482:	6818      	ldr	r0, [r3, #0]
 8002484:	2335      	movs	r3, #53	@ 0x35
 8002486:	4018      	ands	r0, r3
 8002488:	4770      	bx	lr
 800248a:	46c0      	nop			@ (mov r8, r8)
 800248c:	4002200c 	andmi	r2, r2, ip

08002490 <flash_program_half_word>:
 8002490:	b5f8      	push	{r3, r4, r5, r6, r7, lr}
 8002492:	2601      	movs	r6, #1
 8002494:	0005      	movs	r5, r0
 8002496:	000f      	movs	r7, r1
 8002498:	4c06      	ldr	r4, [pc, #24]	@ (80024b4 <flash_program_half_word+0x24>)
 800249a:	f000 f83b 	bl	8002514 <flash_wait_for_last_operation>
 800249e:	6823      	ldr	r3, [r4, #0]
 80024a0:	4333      	orrs	r3, r6
 80024a2:	6023      	str	r3, [r4, #0]
 80024a4:	802f      	strh	r7, [r5, #0]
 80024a6:	f000 f835 	bl	8002514 <flash_wait_for_last_operation>
 80024aa:	6823      	ldr	r3, [r4, #0]
 80024ac:	43b3      	bics	r3, r6
 80024ae:	6023      	str	r3, [r4, #0]
 80024b0:	bdf8      	pop	{r3, r4, r5, r6, r7, pc}
 80024b2:	46c0      	nop			@ (mov r8, r8)
 80024b4:	40022010 	andmi	r2, r2, r0, lsl r0

080024b8 <flash_erase_page>:
 80024b8:	b570      	push	{r4, r5, r6, lr}
 80024ba:	2502      	movs	r5, #2
 80024bc:	0006      	movs	r6, r0
 80024be:	4c09      	ldr	r4, [pc, #36]	@ (80024e4 <flash_erase_page+0x2c>)
 80024c0:	f000 f828 	bl	8002514 <flash_wait_for_last_operation>
 80024c4:	6823      	ldr	r3, [r4, #0]
 80024c6:	432b      	orrs	r3, r5
 80024c8:	6023      	str	r3, [r4, #0]
 80024ca:	4b07      	ldr	r3, [pc, #28]	@ (80024e8 <flash_erase_page+0x30>)
 80024cc:	601e      	str	r6, [r3, #0]
 80024ce:	2340      	movs	r3, #64	@ 0x40
 80024d0:	6822      	ldr	r2, [r4, #0]
 80024d2:	4313      	orrs	r3, r2
 80024d4:	6023      	str	r3, [r4, #0]
 80024d6:	f000 f81d 	bl	8002514 <flash_wait_for_last_operation>
 80024da:	6823      	ldr	r3, [r4, #0]
 80024dc:	43ab      	bics	r3, r5
 80024de:	6023      	str	r3, [r4, #0]
 80024e0:	bd70      	pop	{r4, r5, r6, pc}
 80024e2:	46c0      	nop			@ (mov r8, r8)
 80024e4:	40022010 	andmi	r2, r2, r0, lsl r0
 80024e8:	40022014 	andmi	r2, r2, r4, lsl r0

080024ec <flash_unlock>:
 80024ec:	4b02      	ldr	r3, [pc, #8]	@ (80024f8 <flash_unlock+0xc>)
 80024ee:	4a03      	ldr	r2, [pc, #12]	@ (80024fc <flash_unlock+0x10>)
 80024f0:	601a      	str	r2, [r3, #0]
 80024f2:	4a03      	ldr	r2, [pc, #12]	@ (8002500 <flash_unlock+0x14>)
 80024f4:	601a      	str	r2, [r3, #0]
 80024f6:	4770      	bx	lr
 80024f8:	40022004 	andmi	r2, r2, r4
 80024fc:	45670123 	strbmi	r0, [r7, #-291]!	@ 0xfffffedd
 8002500:	cdef89ab 			@ <UNDEFINED> instruction: 0xcdef89ab

08002504 <flash_lock>:
 8002504:	2380      	movs	r3, #128	@ 0x80
 8002506:	4a02      	ldr	r2, [pc, #8]	@ (8002510 <flash_lock+0xc>)
 8002508:	6811      	ldr	r1, [r2, #0]
 800250a:	430b      	orrs	r3, r1
 800250c:	6013      	str	r3, [r2, #0]
 800250e:	4770      	bx	lr
 8002510:	40022010 	andmi	r2, r2, r0, lsl r0

08002514 <flash_wait_for_last_operation>:
 8002514:	b510      	push	{r4, lr}
 8002516:	2401      	movs	r4, #1
 8002518:	f7ff ffb2 	bl	8002480 <flash_get_status_flags>
 800251c:	4220      	tst	r0, r4
 800251e:	d1fb      	bne.n	8002518 <flash_wait_for_last_operation+0x4>
 8002520:	bd10      	pop	{r4, pc}

08002522 <flash_program_word>:
 8002522:	b570      	push	{r4, r5, r6, lr}
 8002524:	000d      	movs	r5, r1
 8002526:	0004      	movs	r4, r0
 8002528:	b289      	uxth	r1, r1
 800252a:	f7ff ffb1 	bl	8002490 <flash_program_half_word>
 800252e:	0c29      	lsrs	r1, r5, #16
 8002530:	1ca0      	adds	r0, r4, #2
 8002532:	f7ff ffad 	bl	8002490 <flash_program_half_word>
 8002536:	bd70      	pop	{r4, r5, r6, pc}

08002538 <gpio_set>:
 8002538:	6181      	str	r1, [r0, #24]
 800253a:	4770      	bx	lr

0800253c <gpio_clear>:
 800253c:	0409      	lsls	r1, r1, #16
 800253e:	6181      	str	r1, [r0, #24]
 8002540:	4770      	bx	lr

08002542 <gpio_mode_setup>:
 8002542:	b5f0      	push	{r4, r5, r6, r7, lr}
 8002544:	b085      	sub	sp, #20
 8002546:	9101      	str	r1, [sp, #4]
 8002548:	2703      	movs	r7, #3
 800254a:	2100      	movs	r1, #0
 800254c:	9202      	str	r2, [sp, #8]
 800254e:	9303      	str	r3, [sp, #12]
 8002550:	6802      	ldr	r2, [r0, #0]
 8002552:	68c3      	ldr	r3, [r0, #12]
 8002554:	9c03      	ldr	r4, [sp, #12]
 8002556:	2501      	movs	r5, #1
 8002558:	410c      	asrs	r4, r1
 800255a:	422c      	tst	r4, r5
 800255c:	d00a      	beq.n	8002574 <gpio_mode_setup+0x32>
 800255e:	003d      	movs	r5, r7
 8002560:	004c      	lsls	r4, r1, #1
 8002562:	40a5      	lsls	r5, r4
 8002564:	9e01      	ldr	r6, [sp, #4]
 8002566:	43aa      	bics	r2, r5
 8002568:	43ab      	bics	r3, r5
 800256a:	9d02      	ldr	r5, [sp, #8]
 800256c:	40a6      	lsls	r6, r4
 800256e:	40a5      	lsls	r5, r4
 8002570:	4332      	orrs	r2, r6
 8002572:	432b      	orrs	r3, r5
 8002574:	3101      	adds	r1, #1
 8002576:	2910      	cmp	r1, #16
 8002578:	d1ec      	bne.n	8002554 <gpio_mode_setup+0x12>
 800257a:	6002      	str	r2, [r0, #0]
 800257c:	60c3      	str	r3, [r0, #12]
 800257e:	b005      	add	sp, #20
 8002580:	bdf0      	pop	{r4, r5, r6, r7, pc}

08002582 <gpio_set_output_options>:
 8002582:	b5f7      	push	{r0, r1, r2, r4, r5, r6, r7, lr}
 8002584:	9201      	str	r2, [sp, #4]
 8002586:	2901      	cmp	r1, #1
 8002588:	d116      	bne.n	80025b8 <gpio_set_output_options+0x36>
 800258a:	6841      	ldr	r1, [r0, #4]
 800258c:	4319      	orrs	r1, r3
 800258e:	2400      	movs	r4, #0
 8002590:	2601      	movs	r6, #1
 8002592:	2703      	movs	r7, #3
 8002594:	6041      	str	r1, [r0, #4]
 8002596:	6881      	ldr	r1, [r0, #8]
 8002598:	001d      	movs	r5, r3
 800259a:	4125      	asrs	r5, r4
 800259c:	4235      	tst	r5, r6
 800259e:	d006      	beq.n	80025ae <gpio_set_output_options+0x2c>
 80025a0:	003a      	movs	r2, r7
 80025a2:	0065      	lsls	r5, r4, #1
 80025a4:	40aa      	lsls	r2, r5
 80025a6:	4391      	bics	r1, r2
 80025a8:	9a01      	ldr	r2, [sp, #4]
 80025aa:	40aa      	lsls	r2, r5
 80025ac:	4311      	orrs	r1, r2
 80025ae:	3401      	adds	r4, #1
 80025b0:	2c10      	cmp	r4, #16
 80025b2:	d1f1      	bne.n	8002598 <gpio_set_output_options+0x16>
 80025b4:	6081      	str	r1, [r0, #8]
 80025b6:	bdf7      	pop	{r0, r1, r2, r4, r5, r6, r7, pc}
 80025b8:	6841      	ldr	r1, [r0, #4]
 80025ba:	4399      	bics	r1, r3
 80025bc:	e7e7      	b.n	800258e <gpio_set_output_options+0xc>

080025be <gpio_set_af>:
 80025be:	b5f7      	push	{r0, r1, r2, r4, r5, r6, r7, lr}
 80025c0:	2400      	movs	r4, #0
 80025c2:	2601      	movs	r6, #1
 80025c4:	270f      	movs	r7, #15
 80025c6:	9100      	str	r1, [sp, #0]
 80025c8:	6a01      	ldr	r1, [r0, #32]
 80025ca:	6a43      	ldr	r3, [r0, #36]	@ 0x24
 80025cc:	9201      	str	r2, [sp, #4]
 80025ce:	9d01      	ldr	r5, [sp, #4]
 80025d0:	4125      	asrs	r5, r4
 80025d2:	4235      	tst	r5, r6
 80025d4:	d006      	beq.n	80025e4 <gpio_set_af+0x26>
 80025d6:	003a      	movs	r2, r7
 80025d8:	00a5      	lsls	r5, r4, #2
 80025da:	40aa      	lsls	r2, r5
 80025dc:	4391      	bics	r1, r2
 80025de:	9a00      	ldr	r2, [sp, #0]
 80025e0:	40aa      	lsls	r2, r5
 80025e2:	4311      	orrs	r1, r2
 80025e4:	3401      	adds	r4, #1
 80025e6:	2c08      	cmp	r4, #8
 80025e8:	d1f1      	bne.n	80025ce <gpio_set_af+0x10>
 80025ea:	2400      	movs	r4, #0
 80025ec:	2601      	movs	r6, #1
 80025ee:	270f      	movs	r7, #15
 80025f0:	0025      	movs	r5, r4
 80025f2:	9a01      	ldr	r2, [sp, #4]
 80025f4:	3508      	adds	r5, #8
 80025f6:	412a      	asrs	r2, r5
 80025f8:	4232      	tst	r2, r6
 80025fa:	d006      	beq.n	800260a <gpio_set_af+0x4c>
 80025fc:	003a      	movs	r2, r7
 80025fe:	00a5      	lsls	r5, r4, #2
 8002600:	40aa      	lsls	r2, r5
 8002602:	4393      	bics	r3, r2
 8002604:	9a00      	ldr	r2, [sp, #0]
 8002606:	40aa      	lsls	r2, r5
 8002608:	4313      	orrs	r3, r2
 800260a:	3401      	adds	r4, #1
 800260c:	2c08      	cmp	r4, #8
 800260e:	d1ef      	bne.n	80025f0 <gpio_set_af+0x32>
 8002610:	6201      	str	r1, [r0, #32]
 8002612:	6243      	str	r3, [r0, #36]	@ 0x24
 8002614:	bdf7      	pop	{r0, r1, r2, r4, r5, r6, r7, pc}
	...

08002618 <rcc_get_usart_clksel_freq>:
 8002618:	4b0e      	ldr	r3, [pc, #56]	@ (8002654 <rcc_get_usart_clksel_freq+0x3c>)
 800261a:	2203      	movs	r2, #3
 800261c:	681b      	ldr	r3, [r3, #0]
 800261e:	b510      	push	{r4, lr}
 8002620:	40c3      	lsrs	r3, r0
 8002622:	4013      	ands	r3, r2
 8002624:	4a0c      	ldr	r2, [pc, #48]	@ (8002658 <rcc_get_usart_clksel_freq+0x40>)
 8002626:	6810      	ldr	r0, [r2, #0]
 8002628:	2b02      	cmp	r3, #2
 800262a:	d00e      	beq.n	800264a <rcc_get_usart_clksel_freq+0x32>
 800262c:	2b03      	cmp	r3, #3
 800262e:	d00f      	beq.n	8002650 <rcc_get_usart_clksel_freq+0x38>
 8002630:	2b01      	cmp	r3, #1
 8002632:	d002      	beq.n	800263a <rcc_get_usart_clksel_freq+0x22>
 8002634:	4b09      	ldr	r3, [pc, #36]	@ (800265c <rcc_get_usart_clksel_freq+0x44>)
 8002636:	6818      	ldr	r0, [r3, #0]
 8002638:	bd10      	pop	{r4, pc}
 800263a:	0600      	lsls	r0, r0, #24
 800263c:	0f00      	lsrs	r0, r0, #28
 800263e:	f000 f915 	bl	800286c <rcc_get_div_from_hpre>
 8002642:	4b07      	ldr	r3, [pc, #28]	@ (8002660 <rcc_get_usart_clksel_freq+0x48>)
 8002644:	681b      	ldr	r3, [r3, #0]
 8002646:	4358      	muls	r0, r3
 8002648:	e7f6      	b.n	8002638 <rcc_get_usart_clksel_freq+0x20>
 800264a:	2080      	movs	r0, #128	@ 0x80
 800264c:	0200      	lsls	r0, r0, #8
 800264e:	e7f3      	b.n	8002638 <rcc_get_usart_clksel_freq+0x20>
 8002650:	4804      	ldr	r0, [pc, #16]	@ (8002664 <rcc_get_usart_clksel_freq+0x4c>)
 8002652:	e7f1      	b.n	8002638 <rcc_get_usart_clksel_freq+0x20>
 8002654:	40021030 	andmi	r1, r2, r0, lsr r0
 8002658:	40021004 	andmi	r1, r2, r4
 800265c:	20000008 	andcs	r0, r0, r8
 8002660:	2000000c 	andcs	r0, r0, ip
 8002664:	007a1200 	rsbseq	r1, sl, r0, lsl #4

08002668 <rcc_is_osc_ready>:
 8002668:	2300      	movs	r3, #0
 800266a:	b500      	push	{lr}
 800266c:	2806      	cmp	r0, #6
 800266e:	d80a      	bhi.n	8002686 <rcc_is_osc_ready+0x1e>
 8002670:	3301      	adds	r3, #1
 8002672:	f000 faa3 	bl	8002bbc <__gnu_thumb1_case_uqi>
 8002676:	12100e0a 	andsne	r0, r0, #10, 28	@ 0xa0
 800267a:	00041618 	andeq	r1, r4, r8, lsl r6
 800267e:	4a0b      	ldr	r2, [pc, #44]	@ (80026ac <rcc_is_osc_ready+0x44>)
 8002680:	6812      	ldr	r2, [r2, #0]
 8002682:	0c52      	lsrs	r2, r2, #17
 8002684:	4013      	ands	r3, r2
 8002686:	0018      	movs	r0, r3
 8002688:	bd00      	pop	{pc}
 800268a:	4a08      	ldr	r2, [pc, #32]	@ (80026ac <rcc_is_osc_ready+0x44>)
 800268c:	6812      	ldr	r2, [r2, #0]
 800268e:	0852      	lsrs	r2, r2, #1
 8002690:	e7f8      	b.n	8002684 <rcc_is_osc_ready+0x1c>
 8002692:	4a07      	ldr	r2, [pc, #28]	@ (80026b0 <rcc_is_osc_ready+0x48>)
 8002694:	e7fa      	b.n	800268c <rcc_is_osc_ready+0x24>
 8002696:	4a06      	ldr	r2, [pc, #24]	@ (80026b0 <rcc_is_osc_ready+0x48>)
 8002698:	e7f2      	b.n	8002680 <rcc_is_osc_ready+0x18>
 800269a:	4a05      	ldr	r2, [pc, #20]	@ (80026b0 <rcc_is_osc_ready+0x48>)
 800269c:	6812      	ldr	r2, [r2, #0]
 800269e:	0e52      	lsrs	r2, r2, #25
 80026a0:	e7f0      	b.n	8002684 <rcc_is_osc_ready+0x1c>
 80026a2:	4a04      	ldr	r2, [pc, #16]	@ (80026b4 <rcc_is_osc_ready+0x4c>)
 80026a4:	e7f2      	b.n	800268c <rcc_is_osc_ready+0x24>
 80026a6:	4a04      	ldr	r2, [pc, #16]	@ (80026b8 <rcc_is_osc_ready+0x50>)
 80026a8:	e7f0      	b.n	800268c <rcc_is_osc_ready+0x24>
 80026aa:	46c0      	nop			@ (mov r8, r8)
 80026ac:	40021034 	andmi	r1, r2, r4, lsr r0
 80026b0:	40021000 	andmi	r1, r2, r0
 80026b4:	40021020 	andmi	r1, r2, r0, lsr #32
 80026b8:	40021024 	andmi	r1, r2, r4, lsr #32

080026bc <rcc_wait_for_osc_ready>:
 80026bc:	b510      	push	{r4, lr}
 80026be:	0004      	movs	r4, r0
 80026c0:	0020      	movs	r0, r4
 80026c2:	f7ff ffd1 	bl	8002668 <rcc_is_osc_ready>
 80026c6:	2800      	cmp	r0, #0
 80026c8:	d0fa      	beq.n	80026c0 <rcc_wait_for_osc_ready+0x4>
 80026ca:	bd10      	pop	{r4, pc}

080026cc <rcc_osc_on>:
 80026cc:	b500      	push	{lr}
 80026ce:	2806      	cmp	r0, #6
 80026d0:	d80b      	bhi.n	80026ea <rcc_osc_on+0x1e>
 80026d2:	f000 fa73 	bl	8002bbc <__gnu_thumb1_case_uqi>
 80026d6:	17110f0b 	ldrne	r0, [r1, -fp, lsl #30]
 80026da:	00041315 	andeq	r1, r4, r5, lsl r3
 80026de:	4a0c      	ldr	r2, [pc, #48]	@ (8002710 <rcc_osc_on+0x44>)
 80026e0:	2380      	movs	r3, #128	@ 0x80
 80026e2:	6811      	ldr	r1, [r2, #0]
 80026e4:	025b      	lsls	r3, r3, #9
 80026e6:	430b      	orrs	r3, r1
 80026e8:	6013      	str	r3, [r2, #0]
 80026ea:	bd00      	pop	{pc}
 80026ec:	4a08      	ldr	r2, [pc, #32]	@ (8002710 <rcc_osc_on+0x44>)
 80026ee:	2301      	movs	r3, #1
 80026f0:	6811      	ldr	r1, [r2, #0]
 80026f2:	e7f8      	b.n	80026e6 <rcc_osc_on+0x1a>
 80026f4:	4a07      	ldr	r2, [pc, #28]	@ (8002714 <rcc_osc_on+0x48>)
 80026f6:	e7fa      	b.n	80026ee <rcc_osc_on+0x22>
 80026f8:	4a06      	ldr	r2, [pc, #24]	@ (8002714 <rcc_osc_on+0x48>)
 80026fa:	e7f1      	b.n	80026e0 <rcc_osc_on+0x14>
 80026fc:	4a06      	ldr	r2, [pc, #24]	@ (8002718 <rcc_osc_on+0x4c>)
 80026fe:	e7f6      	b.n	80026ee <rcc_osc_on+0x22>
 8002700:	4a06      	ldr	r2, [pc, #24]	@ (800271c <rcc_osc_on+0x50>)
 8002702:	e7f4      	b.n	80026ee <rcc_osc_on+0x22>
 8002704:	2380      	movs	r3, #128	@ 0x80
 8002706:	4a03      	ldr	r2, [pc, #12]	@ (8002714 <rcc_osc_on+0x48>)
 8002708:	045b      	lsls	r3, r3, #17
 800270a:	6811      	ldr	r1, [r2, #0]
 800270c:	e7eb      	b.n	80026e6 <rcc_osc_on+0x1a>
 800270e:	46c0      	nop			@ (mov r8, r8)
 8002710:	40021034 	andmi	r1, r2, r4, lsr r0
 8002714:	40021000 	andmi	r1, r2, r0
 8002718:	40021020 	andmi	r1, r2, r0, lsr #32
 800271c:	40021024 	andmi	r1, r2, r4, lsr #32

08002720 <rcc_set_sysclk_source>:
 8002720:	3801      	subs	r0, #1
 8002722:	b500      	push	{lr}
 8002724:	2805      	cmp	r0, #5
 8002726:	d811      	bhi.n	800274c <rcc_set_sysclk_source+0x2c>
 8002728:	f000 fa48 	bl	8002bbc <__gnu_thumb1_case_uqi>
 800272c:	10110903 	andsne	r0, r1, r3, lsl #18
 8002730:	21031710 	tstcs	r3, r0, lsl r7
 8002734:	4a0b      	ldr	r2, [pc, #44]	@ (8002764 <rcc_set_sysclk_source+0x44>)
 8002736:	6813      	ldr	r3, [r2, #0]
 8002738:	438b      	bics	r3, r1
 800273a:	6013      	str	r3, [r2, #0]
 800273c:	e006      	b.n	800274c <rcc_set_sysclk_source+0x2c>
 800273e:	2303      	movs	r3, #3
 8002740:	4908      	ldr	r1, [pc, #32]	@ (8002764 <rcc_set_sysclk_source+0x44>)
 8002742:	680a      	ldr	r2, [r1, #0]
 8002744:	439a      	bics	r2, r3
 8002746:	3b02      	subs	r3, #2
 8002748:	4313      	orrs	r3, r2
 800274a:	600b      	str	r3, [r1, #0]
 800274c:	bd00      	pop	{pc}
 800274e:	2303      	movs	r3, #3
 8002750:	4904      	ldr	r1, [pc, #16]	@ (8002764 <rcc_set_sysclk_source+0x44>)
 8002752:	680a      	ldr	r2, [r1, #0]
 8002754:	439a      	bics	r2, r3
 8002756:	3b01      	subs	r3, #1
 8002758:	e7f6      	b.n	8002748 <rcc_set_sysclk_source+0x28>
 800275a:	2303      	movs	r3, #3
 800275c:	4a01      	ldr	r2, [pc, #4]	@ (8002764 <rcc_set_sysclk_source+0x44>)
 800275e:	6811      	ldr	r1, [r2, #0]
 8002760:	430b      	orrs	r3, r1
 8002762:	e7ea      	b.n	800273a <rcc_set_sysclk_source+0x1a>
 8002764:	40021004 	andmi	r1, r2, r4

08002768 <rcc_set_ppre>:
 8002768:	4a03      	ldr	r2, [pc, #12]	@ (8002778 <rcc_set_ppre+0x10>)
 800276a:	4904      	ldr	r1, [pc, #16]	@ (800277c <rcc_set_ppre+0x14>)
 800276c:	6813      	ldr	r3, [r2, #0]
 800276e:	400b      	ands	r3, r1
 8002770:	4303      	orrs	r3, r0
 8002772:	6013      	str	r3, [r2, #0]
 8002774:	4770      	bx	lr
 8002776:	46c0      	nop			@ (mov r8, r8)
 8002778:	40021004 	andmi	r1, r2, r4
 800277c:	fffff8ff 			@ <UNDEFINED> instruction: 0xfffff8ff

08002780 <rcc_set_hpre>:
 8002780:	21f0      	movs	r1, #240	@ 0xf0
 8002782:	4a03      	ldr	r2, [pc, #12]	@ (8002790 <rcc_set_hpre+0x10>)
 8002784:	6813      	ldr	r3, [r2, #0]
 8002786:	438b      	bics	r3, r1
 8002788:	4303      	orrs	r3, r0
 800278a:	6013      	str	r3, [r2, #0]
 800278c:	4770      	bx	lr
 800278e:	46c0      	nop			@ (mov r8, r8)
 8002790:	40021004 	andmi	r1, r2, r4

08002794 <rcc_clock_setup_in_hsi48_out_48mhz>:
 8002794:	b510      	push	{r4, lr}
 8002796:	2006      	movs	r0, #6
 8002798:	f7ff ff98 	bl	80026cc <rcc_osc_on>
 800279c:	2006      	movs	r0, #6
 800279e:	f7ff ff8d 	bl	80026bc <rcc_wait_for_osc_ready>
 80027a2:	2000      	movs	r0, #0
 80027a4:	f7ff ffec 	bl	8002780 <rcc_set_hpre>
 80027a8:	2000      	movs	r0, #0
 80027aa:	f7ff ffdd 	bl	8002768 <rcc_set_ppre>
 80027ae:	f000 f957 	bl	8002a60 <flash_prefetch_enable>
 80027b2:	2001      	movs	r0, #1
 80027b4:	f000 f95c 	bl	8002a70 <flash_set_ws>
 80027b8:	2006      	movs	r0, #6
 80027ba:	f7ff ffb1 	bl	8002720 <rcc_set_sysclk_source>
 80027be:	4b03      	ldr	r3, [pc, #12]	@ (80027cc <rcc_clock_setup_in_hsi48_out_48mhz+0x38>)
 80027c0:	4a03      	ldr	r2, [pc, #12]	@ (80027d0 <rcc_clock_setup_in_hsi48_out_48mhz+0x3c>)
 80027c2:	601a      	str	r2, [r3, #0]
 80027c4:	4b03      	ldr	r3, [pc, #12]	@ (80027d4 <rcc_clock_setup_in_hsi48_out_48mhz+0x40>)
 80027c6:	601a      	str	r2, [r3, #0]
 80027c8:	bd10      	pop	{r4, pc}
 80027ca:	46c0      	nop			@ (mov r8, r8)
 80027cc:	20000008 	andcs	r0, r0, r8
 80027d0:	02dc6c00 	sbcseq	r6, ip, #0, 24
 80027d4:	2000000c 	andcs	r0, r0, ip

080027d8 <rcc_get_usart_clk_freq>:
 80027d8:	4b0a      	ldr	r3, [pc, #40]	@ (8002804 <rcc_get_usart_clk_freq+0x2c>)
 80027da:	b510      	push	{r4, lr}
 80027dc:	4298      	cmp	r0, r3
 80027de:	d103      	bne.n	80027e8 <rcc_get_usart_clk_freq+0x10>
 80027e0:	2000      	movs	r0, #0
 80027e2:	f7ff ff19 	bl	8002618 <rcc_get_usart_clksel_freq>
 80027e6:	bd10      	pop	{r4, pc}
 80027e8:	4b07      	ldr	r3, [pc, #28]	@ (8002808 <rcc_get_usart_clk_freq+0x30>)
 80027ea:	4298      	cmp	r0, r3
 80027ec:	d101      	bne.n	80027f2 <rcc_get_usart_clk_freq+0x1a>
 80027ee:	2010      	movs	r0, #16
 80027f0:	e7f7      	b.n	80027e2 <rcc_get_usart_clk_freq+0xa>
 80027f2:	4b06      	ldr	r3, [pc, #24]	@ (800280c <rcc_get_usart_clk_freq+0x34>)
 80027f4:	4298      	cmp	r0, r3
 80027f6:	d101      	bne.n	80027fc <rcc_get_usart_clk_freq+0x24>
 80027f8:	2012      	movs	r0, #18
 80027fa:	e7f2      	b.n	80027e2 <rcc_get_usart_clk_freq+0xa>
 80027fc:	4b04      	ldr	r3, [pc, #16]	@ (8002810 <rcc_get_usart_clk_freq+0x38>)
 80027fe:	6818      	ldr	r0, [r3, #0]
 8002800:	e7f1      	b.n	80027e6 <rcc_get_usart_clk_freq+0xe>
 8002802:	46c0      	nop			@ (mov r8, r8)
 8002804:	40013800 	andmi	r3, r1, r0, lsl #16
 8002808:	40004400 	andmi	r4, r0, r0, lsl #8
 800280c:	40004800 	andmi	r4, r0, r0, lsl #16
 8002810:	20000008 	andcs	r0, r0, r8

08002814 <rcc_periph_clock_enable>:
 8002814:	4b05      	ldr	r3, [pc, #20]	@ (800282c <rcc_periph_clock_enable+0x18>)
 8002816:	0942      	lsrs	r2, r0, #5
 8002818:	18d2      	adds	r2, r2, r3
 800281a:	231f      	movs	r3, #31
 800281c:	4018      	ands	r0, r3
 800281e:	3b1e      	subs	r3, #30
 8002820:	4083      	lsls	r3, r0
 8002822:	6811      	ldr	r1, [r2, #0]
 8002824:	430b      	orrs	r3, r1
 8002826:	6013      	str	r3, [r2, #0]
 8002828:	4770      	bx	lr
 800282a:	46c0      	nop			@ (mov r8, r8)
 800282c:	40021000 	andmi	r1, r2, r0

08002830 <rcc_periph_clock_disable>:
 8002830:	211f      	movs	r1, #31
 8002832:	0943      	lsrs	r3, r0, #5
 8002834:	4008      	ands	r0, r1
 8002836:	391e      	subs	r1, #30
 8002838:	4081      	lsls	r1, r0
 800283a:	4a03      	ldr	r2, [pc, #12]	@ (8002848 <rcc_periph_clock_disable+0x18>)
 800283c:	189b      	adds	r3, r3, r2
 800283e:	681a      	ldr	r2, [r3, #0]
 8002840:	438a      	bics	r2, r1
 8002842:	601a      	str	r2, [r3, #0]
 8002844:	4770      	bx	lr
 8002846:	46c0      	nop			@ (mov r8, r8)
 8002848:	40021000 	andmi	r1, r2, r0

0800284c <rcc_periph_reset_pulse>:
 800284c:	4a06      	ldr	r2, [pc, #24]	@ (8002868 <rcc_periph_reset_pulse+0x1c>)
 800284e:	0943      	lsrs	r3, r0, #5
 8002850:	189b      	adds	r3, r3, r2
 8002852:	221f      	movs	r2, #31
 8002854:	4010      	ands	r0, r2
 8002856:	3a1e      	subs	r2, #30
 8002858:	4082      	lsls	r2, r0
 800285a:	6819      	ldr	r1, [r3, #0]
 800285c:	4311      	orrs	r1, r2
 800285e:	6019      	str	r1, [r3, #0]
 8002860:	6819      	ldr	r1, [r3, #0]
 8002862:	4391      	bics	r1, r2
 8002864:	6019      	str	r1, [r3, #0]
 8002866:	4770      	bx	lr
 8002868:	40021000 	andmi	r1, r2, r0

0800286c <rcc_get_div_from_hpre>:
 800286c:	2201      	movs	r2, #1
 800286e:	0003      	movs	r3, r0
 8002870:	0010      	movs	r0, r2
 8002872:	2b07      	cmp	r3, #7
 8002874:	d904      	bls.n	8002880 <rcc_get_div_from_hpre+0x14>
 8002876:	2b0b      	cmp	r3, #11
 8002878:	d803      	bhi.n	8002882 <rcc_get_div_from_hpre+0x16>
 800287a:	3b07      	subs	r3, #7
 800287c:	409a      	lsls	r2, r3
 800287e:	b290      	uxth	r0, r2
 8002880:	4770      	bx	lr
 8002882:	3b06      	subs	r3, #6
 8002884:	e7fa      	b.n	800287c <rcc_get_div_from_hpre+0x10>

08002886 <usart_set_baudrate>:
 8002886:	b570      	push	{r4, r5, r6, lr}
 8002888:	000d      	movs	r5, r1
 800288a:	0004      	movs	r4, r0
 800288c:	f7ff ffa4 	bl	80027d8 <rcc_get_usart_clk_freq>
 8002890:	086b      	lsrs	r3, r5, #1
 8002892:	0029      	movs	r1, r5
 8002894:	1818      	adds	r0, r3, r0
 8002896:	f000 f9af 	bl	8002bf8 <__udivsi3>
 800289a:	60e0      	str	r0, [r4, #12]
 800289c:	bd70      	pop	{r4, r5, r6, pc}
	...

080028a0 <usart_set_databits>:
 80028a0:	2908      	cmp	r1, #8
 80028a2:	d104      	bne.n	80028ae <usart_set_databits+0xe>
 80028a4:	6803      	ldr	r3, [r0, #0]
 80028a6:	4a04      	ldr	r2, [pc, #16]	@ (80028b8 <usart_set_databits+0x18>)
 80028a8:	4013      	ands	r3, r2
 80028aa:	6003      	str	r3, [r0, #0]
 80028ac:	4770      	bx	lr
 80028ae:	2380      	movs	r3, #128	@ 0x80
 80028b0:	6802      	ldr	r2, [r0, #0]
 80028b2:	015b      	lsls	r3, r3, #5
 80028b4:	4313      	orrs	r3, r2
 80028b6:	e7f8      	b.n	80028aa <usart_set_databits+0xa>
 80028b8:	ffffefff 			@ <UNDEFINED> instruction: 0xffffefff

080028bc <usart_set_stopbits>:
 80028bc:	6843      	ldr	r3, [r0, #4]
 80028be:	4a02      	ldr	r2, [pc, #8]	@ (80028c8 <usart_set_stopbits+0xc>)
 80028c0:	4013      	ands	r3, r2
 80028c2:	430b      	orrs	r3, r1
 80028c4:	6043      	str	r3, [r0, #4]
 80028c6:	4770      	bx	lr
 80028c8:	ffffcfff 			@ <UNDEFINED> instruction: 0xffffcfff

080028cc <usart_set_parity>:
 80028cc:	6803      	ldr	r3, [r0, #0]
 80028ce:	4a02      	ldr	r2, [pc, #8]	@ (80028d8 <usart_set_parity+0xc>)
 80028d0:	4013      	ands	r3, r2
 80028d2:	430b      	orrs	r3, r1
 80028d4:	6003      	str	r3, [r0, #0]
 80028d6:	4770      	bx	lr
 80028d8:	fffff9ff 			@ <UNDEFINED> instruction: 0xfffff9ff

080028dc <usart_set_mode>:
 80028dc:	220c      	movs	r2, #12
 80028de:	6803      	ldr	r3, [r0, #0]
 80028e0:	4393      	bics	r3, r2
 80028e2:	430b      	orrs	r3, r1
 80028e4:	6003      	str	r3, [r0, #0]
 80028e6:	4770      	bx	lr

080028e8 <usart_set_flow_control>:
 80028e8:	6883      	ldr	r3, [r0, #8]
 80028ea:	4a02      	ldr	r2, [pc, #8]	@ (80028f4 <usart_set_flow_control+0xc>)
 80028ec:	4013      	ands	r3, r2
 80028ee:	430b      	orrs	r3, r1
 80028f0:	6083      	str	r3, [r0, #8]
 80028f2:	4770      	bx	lr
 80028f4:	fffffcff 			@ <UNDEFINED> instruction: 0xfffffcff

080028f8 <usart_enable>:
 80028f8:	2301      	movs	r3, #1
 80028fa:	6802      	ldr	r2, [r0, #0]
 80028fc:	4313      	orrs	r3, r2
 80028fe:	6003      	str	r3, [r0, #0]
 8002900:	4770      	bx	lr

08002902 <usart_disable>:
 8002902:	2201      	movs	r2, #1
 8002904:	6803      	ldr	r3, [r0, #0]
 8002906:	4393      	bics	r3, r2
 8002908:	6003      	str	r3, [r0, #0]
 800290a:	4770      	bx	lr

0800290c <usart_send_blocking>:
 800290c:	b570      	push	{r4, r5, r6, lr}
 800290e:	000d      	movs	r5, r1
 8002910:	0004      	movs	r4, r0
 8002912:	f000 f809 	bl	8002928 <usart_wait_send_ready>
 8002916:	0029      	movs	r1, r5
 8002918:	0020      	movs	r0, r4
 800291a:	f000 f801 	bl	8002920 <usart_send>
 800291e:	bd70      	pop	{r4, r5, r6, pc}

08002920 <usart_send>:
 8002920:	05c9      	lsls	r1, r1, #23
 8002922:	0dc9      	lsrs	r1, r1, #23
 8002924:	6281      	str	r1, [r0, #40]	@ 0x28
 8002926:	4770      	bx	lr

08002928 <usart_wait_send_ready>:
 8002928:	2380      	movs	r3, #128	@ 0x80
 800292a:	69c2      	ldr	r2, [r0, #28]
 800292c:	421a      	tst	r2, r3
 800292e:	d0fc      	beq.n	800292a <usart_wait_send_ready+0x2>
 8002930:	4770      	bx	lr

08002932 <blocking_handler>:
 8002932:	e7fe      	b.n	8002932 <blocking_handler>

08002934 <null_handler>:
 8002934:	4770      	bx	lr
	...

08002938 <reset_handler>:
 8002938:	b510      	push	{r4, lr}
 800293a:	4b16      	ldr	r3, [pc, #88]	@ (8002994 <reset_handler+0x5c>)
 800293c:	4a16      	ldr	r2, [pc, #88]	@ (8002998 <reset_handler+0x60>)
 800293e:	4917      	ldr	r1, [pc, #92]	@ (800299c <reset_handler+0x64>)
 8002940:	428b      	cmp	r3, r1
 8002942:	d318      	bcc.n	8002976 <reset_handler+0x3e>
 8002944:	2100      	movs	r1, #0
 8002946:	4a16      	ldr	r2, [pc, #88]	@ (80029a0 <reset_handler+0x68>)
 8002948:	4293      	cmp	r3, r2
 800294a:	d317      	bcc.n	800297c <reset_handler+0x44>
 800294c:	2380      	movs	r3, #128	@ 0x80
 800294e:	4a15      	ldr	r2, [pc, #84]	@ (80029a4 <reset_handler+0x6c>)
 8002950:	009b      	lsls	r3, r3, #2
 8002952:	6811      	ldr	r1, [r2, #0]
 8002954:	4c14      	ldr	r4, [pc, #80]	@ (80029a8 <reset_handler+0x70>)
 8002956:	430b      	orrs	r3, r1
 8002958:	6013      	str	r3, [r2, #0]
 800295a:	4b14      	ldr	r3, [pc, #80]	@ (80029ac <reset_handler+0x74>)
 800295c:	429c      	cmp	r4, r3
 800295e:	d30f      	bcc.n	8002980 <reset_handler+0x48>
 8002960:	4c13      	ldr	r4, [pc, #76]	@ (80029b0 <reset_handler+0x78>)
 8002962:	4b14      	ldr	r3, [pc, #80]	@ (80029b4 <reset_handler+0x7c>)
 8002964:	429c      	cmp	r4, r3
 8002966:	d30e      	bcc.n	8002986 <reset_handler+0x4e>
 8002968:	f7fe fb76 	bl	8001058 <main>
 800296c:	4c12      	ldr	r4, [pc, #72]	@ (80029b8 <reset_handler+0x80>)
 800296e:	4b13      	ldr	r3, [pc, #76]	@ (80029bc <reset_handler+0x84>)
 8002970:	429c      	cmp	r4, r3
 8002972:	d30b      	bcc.n	800298c <reset_handler+0x54>
 8002974:	bd10      	pop	{r4, pc}
 8002976:	ca01      	ldmia	r2!, {r0}
 8002978:	c301      	stmia	r3!, {r0}
 800297a:	e7e1      	b.n	8002940 <reset_handler+0x8>
 800297c:	c302      	stmia	r3!, {r1}
 800297e:	e7e3      	b.n	8002948 <reset_handler+0x10>
 8002980:	cc08      	ldmia	r4!, {r3}
 8002982:	4798      	blx	r3
 8002984:	e7e9      	b.n	800295a <reset_handler+0x22>
 8002986:	cc08      	ldmia	r4!, {r3}
 8002988:	4798      	blx	r3
 800298a:	e7ea      	b.n	8002962 <reset_handler+0x2a>
 800298c:	cc08      	ldmia	r4!, {r3}
 800298e:	4798      	blx	r3
 8002990:	e7ed      	b.n	800296e <reset_handler+0x36>
 8002992:	46c0      	nop			@ (mov r8, r8)
 8002994:	20000000 	andcs	r0, r0, r0
 8002998:	0800549c 	stmdaeq	r0, {r2, r3, r4, r7, sl, ip, lr}
 800299c:	20000010 	andcs	r0, r0, r0, lsl r0
 80029a0:	20000740 	andcs	r0, r0, r0, asr #14
 80029a4:	e000ed14 	and	lr, r0, r4, lsl sp
 80029a8:	08005494 	stmdaeq	r0, {r2, r4, r7, sl, ip, lr}
 80029ac:	08005494 	stmdaeq	r0, {r2, r4, r7, sl, ip, lr}
 80029b0:	08005494 	stmdaeq	r0, {r2, r4, r7, sl, ip, lr}
 80029b4:	08005494 	stmdaeq	r0, {r2, r4, r7, sl, ip, lr}
 80029b8:	08005494 	stmdaeq	r0, {r2, r4, r7, sl, ip, lr}
 80029bc:	08005494 	stmdaeq	r0, {r2, r4, r7, sl, ip, lr}

080029c0 <systick_set_clocksource>:
 80029c0:	2104      	movs	r1, #4
 80029c2:	4a03      	ldr	r2, [pc, #12]	@ (80029d0 <systick_set_clocksource+0x10>)
 80029c4:	4008      	ands	r0, r1
 80029c6:	6813      	ldr	r3, [r2, #0]
 80029c8:	438b      	bics	r3, r1
 80029ca:	4303      	orrs	r3, r0
 80029cc:	6013      	str	r3, [r2, #0]
 80029ce:	4770      	bx	lr
 80029d0:	e000e010 	and	lr, r0, r0, lsl r0

080029d4 <systick_set_frequency>:
 80029d4:	0003      	movs	r3, r0
 80029d6:	b510      	push	{r4, lr}
 80029d8:	0008      	movs	r0, r1
 80029da:	0019      	movs	r1, r3
 80029dc:	f000 f90c 	bl	8002bf8 <__udivsi3>
 80029e0:	0004      	movs	r4, r0
 80029e2:	2004      	movs	r0, #4
 80029e4:	3c01      	subs	r4, #1
 80029e6:	f7ff ffeb 	bl	80029c0 <systick_set_clocksource>
 80029ea:	0224      	lsls	r4, r4, #8
 80029ec:	4b02      	ldr	r3, [pc, #8]	@ (80029f8 <systick_set_frequency+0x24>)
 80029ee:	0a24      	lsrs	r4, r4, #8
 80029f0:	2001      	movs	r0, #1
 80029f2:	601c      	str	r4, [r3, #0]
 80029f4:	bd10      	pop	{r4, pc}
 80029f6:	46c0      	nop			@ (mov r8, r8)
 80029f8:	e000e014 	and	lr, r0, r4, lsl r0

080029fc <systick_interrupt_enable>:
 80029fc:	2302      	movs	r3, #2
 80029fe:	4a02      	ldr	r2, [pc, #8]	@ (8002a08 <systick_interrupt_enable+0xc>)
 8002a00:	6811      	ldr	r1, [r2, #0]
 8002a02:	430b      	orrs	r3, r1
 8002a04:	6013      	str	r3, [r2, #0]
 8002a06:	4770      	bx	lr
 8002a08:	e000e010 	and	lr, r0, r0, lsl r0

08002a0c <systick_interrupt_disable>:
 8002a0c:	2102      	movs	r1, #2
 8002a0e:	4a02      	ldr	r2, [pc, #8]	@ (8002a18 <systick_interrupt_disable+0xc>)
 8002a10:	6813      	ldr	r3, [r2, #0]
 8002a12:	438b      	bics	r3, r1
 8002a14:	6013      	str	r3, [r2, #0]
 8002a16:	4770      	bx	lr
 8002a18:	e000e010 	and	lr, r0, r0, lsl r0

08002a1c <systick_counter_enable>:
 8002a1c:	2301      	movs	r3, #1
 8002a1e:	4a02      	ldr	r2, [pc, #8]	@ (8002a28 <systick_counter_enable+0xc>)
 8002a20:	6811      	ldr	r1, [r2, #0]
 8002a22:	430b      	orrs	r3, r1
 8002a24:	6013      	str	r3, [r2, #0]
 8002a26:	4770      	bx	lr
 8002a28:	e000e010 	and	lr, r0, r0, lsl r0

08002a2c <systick_counter_disable>:
 8002a2c:	2101      	movs	r1, #1
 8002a2e:	4a02      	ldr	r2, [pc, #8]	@ (8002a38 <systick_counter_disable+0xc>)
 8002a30:	6813      	ldr	r3, [r2, #0]
 8002a32:	438b      	bics	r3, r1
 8002a34:	6013      	str	r3, [r2, #0]
 8002a36:	4770      	bx	lr
 8002a38:	e000e010 	and	lr, r0, r0, lsl r0

08002a3c <systick_clear>:
 8002a3c:	2200      	movs	r2, #0
 8002a3e:	4b01      	ldr	r3, [pc, #4]	@ (8002a44 <systick_clear+0x8>)
 8002a40:	601a      	str	r2, [r3, #0]
 8002a42:	4770      	bx	lr
 8002a44:	e000e018 	and	lr, r0, r8, lsl r0

08002a48 <nvic_enable_irq>:
 8002a48:	4a04      	ldr	r2, [pc, #16]	@ (8002a5c <nvic_enable_irq+0x14>)
 8002a4a:	0943      	lsrs	r3, r0, #5
 8002a4c:	009b      	lsls	r3, r3, #2
 8002a4e:	189b      	adds	r3, r3, r2
 8002a50:	221f      	movs	r2, #31
 8002a52:	4010      	ands	r0, r2
 8002a54:	3a1e      	subs	r2, #30
 8002a56:	4082      	lsls	r2, r0
 8002a58:	601a      	str	r2, [r3, #0]
 8002a5a:	4770      	bx	lr
 8002a5c:	e000e100 	and	lr, r0, r0, lsl #2

08002a60 <flash_prefetch_enable>:
 8002a60:	2310      	movs	r3, #16
 8002a62:	4a02      	ldr	r2, [pc, #8]	@ (8002a6c <flash_prefetch_enable+0xc>)
 8002a64:	6811      	ldr	r1, [r2, #0]
 8002a66:	430b      	orrs	r3, r1
 8002a68:	6013      	str	r3, [r2, #0]
 8002a6a:	4770      	bx	lr
 8002a6c:	40022000 	andmi	r2, r2, r0

08002a70 <flash_set_ws>:
 8002a70:	2107      	movs	r1, #7
 8002a72:	4a03      	ldr	r2, [pc, #12]	@ (8002a80 <flash_set_ws+0x10>)
 8002a74:	6813      	ldr	r3, [r2, #0]
 8002a76:	438b      	bics	r3, r1
 8002a78:	4303      	orrs	r3, r0
 8002a7a:	6013      	str	r3, [r2, #0]
 8002a7c:	4770      	bx	lr
 8002a7e:	46c0      	nop			@ (mov r8, r8)
 8002a80:	40022000 	andmi	r2, r2, r0

08002a84 <memset>:
 8002a84:	b5f0      	push	{r4, r5, r6, r7, lr}
 8002a86:	0005      	movs	r5, r0
 8002a88:	0783      	lsls	r3, r0, #30
 8002a8a:	d049      	beq.n	8002b20 <memset+0x9c>
 8002a8c:	1e54      	subs	r4, r2, #1
 8002a8e:	2a00      	cmp	r2, #0
 8002a90:	d045      	beq.n	8002b1e <memset+0x9a>
 8002a92:	0003      	movs	r3, r0
 8002a94:	2603      	movs	r6, #3
 8002a96:	b2ca      	uxtb	r2, r1
 8002a98:	e002      	b.n	8002aa0 <memset+0x1c>
 8002a9a:	3501      	adds	r5, #1
 8002a9c:	3c01      	subs	r4, #1
 8002a9e:	d33e      	bcc.n	8002b1e <memset+0x9a>
 8002aa0:	3301      	adds	r3, #1
 8002aa2:	702a      	strb	r2, [r5, #0]
 8002aa4:	4233      	tst	r3, r6
 8002aa6:	d1f8      	bne.n	8002a9a <memset+0x16>
 8002aa8:	2c03      	cmp	r4, #3
 8002aaa:	d930      	bls.n	8002b0e <memset+0x8a>
 8002aac:	22ff      	movs	r2, #255	@ 0xff
 8002aae:	400a      	ands	r2, r1
 8002ab0:	0215      	lsls	r5, r2, #8
 8002ab2:	18ad      	adds	r5, r5, r2
 8002ab4:	042a      	lsls	r2, r5, #16
 8002ab6:	18ad      	adds	r5, r5, r2
 8002ab8:	2c0f      	cmp	r4, #15
 8002aba:	d934      	bls.n	8002b26 <memset+0xa2>
 8002abc:	0027      	movs	r7, r4
 8002abe:	3f10      	subs	r7, #16
 8002ac0:	093f      	lsrs	r7, r7, #4
 8002ac2:	013e      	lsls	r6, r7, #4
 8002ac4:	46b4      	mov	ip, r6
 8002ac6:	001e      	movs	r6, r3
 8002ac8:	001a      	movs	r2, r3
 8002aca:	3610      	adds	r6, #16
 8002acc:	4466      	add	r6, ip
 8002ace:	6015      	str	r5, [r2, #0]
 8002ad0:	6055      	str	r5, [r2, #4]
 8002ad2:	6095      	str	r5, [r2, #8]
 8002ad4:	60d5      	str	r5, [r2, #12]
 8002ad6:	3210      	adds	r2, #16
 8002ad8:	4296      	cmp	r6, r2
 8002ada:	d1f8      	bne.n	8002ace <memset+0x4a>
 8002adc:	3701      	adds	r7, #1
 8002ade:	013f      	lsls	r7, r7, #4
 8002ae0:	19db      	adds	r3, r3, r7
 8002ae2:	270f      	movs	r7, #15
 8002ae4:	220c      	movs	r2, #12
 8002ae6:	4027      	ands	r7, r4
 8002ae8:	4022      	ands	r2, r4
 8002aea:	003c      	movs	r4, r7
 8002aec:	2a00      	cmp	r2, #0
 8002aee:	d00e      	beq.n	8002b0e <memset+0x8a>
 8002af0:	1f3e      	subs	r6, r7, #4
 8002af2:	08b6      	lsrs	r6, r6, #2
 8002af4:	00b4      	lsls	r4, r6, #2
 8002af6:	46a4      	mov	ip, r4
 8002af8:	001a      	movs	r2, r3
 8002afa:	1d1c      	adds	r4, r3, #4
 8002afc:	4464      	add	r4, ip
 8002afe:	c220      	stmia	r2!, {r5}
 8002b00:	42a2      	cmp	r2, r4
 8002b02:	d1fc      	bne.n	8002afe <memset+0x7a>
 8002b04:	2403      	movs	r4, #3
 8002b06:	3601      	adds	r6, #1
 8002b08:	00b6      	lsls	r6, r6, #2
 8002b0a:	199b      	adds	r3, r3, r6
 8002b0c:	403c      	ands	r4, r7
 8002b0e:	2c00      	cmp	r4, #0
 8002b10:	d005      	beq.n	8002b1e <memset+0x9a>
 8002b12:	b2c9      	uxtb	r1, r1
 8002b14:	191c      	adds	r4, r3, r4
 8002b16:	7019      	strb	r1, [r3, #0]
 8002b18:	3301      	adds	r3, #1
 8002b1a:	429c      	cmp	r4, r3
 8002b1c:	d1fb      	bne.n	8002b16 <memset+0x92>
 8002b1e:	bdf0      	pop	{r4, r5, r6, r7, pc}
 8002b20:	0003      	movs	r3, r0
 8002b22:	0014      	movs	r4, r2
 8002b24:	e7c0      	b.n	8002aa8 <memset+0x24>
 8002b26:	0027      	movs	r7, r4
 8002b28:	e7e2      	b.n	8002af0 <memset+0x6c>
 8002b2a:	46c0      	nop			@ (mov r8, r8)

08002b2c <memcpy>:
 8002b2c:	b5f0      	push	{r4, r5, r6, r7, lr}
 8002b2e:	0005      	movs	r5, r0
 8002b30:	2a0f      	cmp	r2, #15
 8002b32:	d933      	bls.n	8002b9c <memcpy+0x70>
 8002b34:	2403      	movs	r4, #3
 8002b36:	0003      	movs	r3, r0
 8002b38:	0026      	movs	r6, r4
 8002b3a:	430b      	orrs	r3, r1
 8002b3c:	401e      	ands	r6, r3
 8002b3e:	421c      	tst	r4, r3
 8002b40:	d137      	bne.n	8002bb2 <memcpy+0x86>
 8002b42:	0015      	movs	r5, r2
 8002b44:	3d10      	subs	r5, #16
 8002b46:	092d      	lsrs	r5, r5, #4
 8002b48:	0003      	movs	r3, r0
 8002b4a:	000c      	movs	r4, r1
 8002b4c:	46ac      	mov	ip, r5
 8002b4e:	012f      	lsls	r7, r5, #4
 8002b50:	183f      	adds	r7, r7, r0
 8002b52:	6865      	ldr	r5, [r4, #4]
 8002b54:	605d      	str	r5, [r3, #4]
 8002b56:	68a5      	ldr	r5, [r4, #8]
 8002b58:	609d      	str	r5, [r3, #8]
 8002b5a:	68e5      	ldr	r5, [r4, #12]
 8002b5c:	60dd      	str	r5, [r3, #12]
 8002b5e:	6825      	ldr	r5, [r4, #0]
 8002b60:	3410      	adds	r4, #16
 8002b62:	601d      	str	r5, [r3, #0]
 8002b64:	001d      	movs	r5, r3
 8002b66:	3310      	adds	r3, #16
 8002b68:	42bd      	cmp	r5, r7
 8002b6a:	d1f2      	bne.n	8002b52 <memcpy+0x26>
 8002b6c:	4665      	mov	r5, ip
 8002b6e:	230f      	movs	r3, #15
 8002b70:	240c      	movs	r4, #12
 8002b72:	3501      	adds	r5, #1
 8002b74:	012d      	lsls	r5, r5, #4
 8002b76:	1949      	adds	r1, r1, r5
 8002b78:	4013      	ands	r3, r2
 8002b7a:	1945      	adds	r5, r0, r5
 8002b7c:	4214      	tst	r4, r2
 8002b7e:	d01a      	beq.n	8002bb6 <memcpy+0x8a>
 8002b80:	598c      	ldr	r4, [r1, r6]
 8002b82:	51ac      	str	r4, [r5, r6]
 8002b84:	3604      	adds	r6, #4
 8002b86:	1b9c      	subs	r4, r3, r6
 8002b88:	2c03      	cmp	r4, #3
 8002b8a:	d8f9      	bhi.n	8002b80 <memcpy+0x54>
 8002b8c:	3b04      	subs	r3, #4
 8002b8e:	089b      	lsrs	r3, r3, #2
 8002b90:	3301      	adds	r3, #1
 8002b92:	009b      	lsls	r3, r3, #2
 8002b94:	18ed      	adds	r5, r5, r3
 8002b96:	18c9      	adds	r1, r1, r3
 8002b98:	2303      	movs	r3, #3
 8002b9a:	401a      	ands	r2, r3
 8002b9c:	1e56      	subs	r6, r2, #1
 8002b9e:	2a00      	cmp	r2, #0
 8002ba0:	d006      	beq.n	8002bb0 <memcpy+0x84>
 8002ba2:	2300      	movs	r3, #0
 8002ba4:	5ccc      	ldrb	r4, [r1, r3]
 8002ba6:	001a      	movs	r2, r3
 8002ba8:	54ec      	strb	r4, [r5, r3]
 8002baa:	3301      	adds	r3, #1
 8002bac:	4296      	cmp	r6, r2
 8002bae:	d1f9      	bne.n	8002ba4 <memcpy+0x78>
 8002bb0:	bdf0      	pop	{r4, r5, r6, r7, pc}
 8002bb2:	1e56      	subs	r6, r2, #1
 8002bb4:	e7f5      	b.n	8002ba2 <memcpy+0x76>
 8002bb6:	001a      	movs	r2, r3
 8002bb8:	e7f0      	b.n	8002b9c <memcpy+0x70>
 8002bba:	46c0      	nop			@ (mov r8, r8)

08002bbc <__gnu_thumb1_case_uqi>:
 8002bbc:	b402      	push	{r1}
 8002bbe:	4671      	mov	r1, lr
 8002bc0:	0849      	lsrs	r1, r1, #1
 8002bc2:	0049      	lsls	r1, r1, #1
 8002bc4:	5c09      	ldrb	r1, [r1, r0]
 8002bc6:	0049      	lsls	r1, r1, #1
 8002bc8:	448e      	add	lr, r1
 8002bca:	bc02      	pop	{r1}
 8002bcc:	4770      	bx	lr
 8002bce:	46c0      	nop			@ (mov r8, r8)

08002bd0 <__gnu_thumb1_case_shi>:
 8002bd0:	b403      	push	{r0, r1}
 8002bd2:	4671      	mov	r1, lr
 8002bd4:	0849      	lsrs	r1, r1, #1
 8002bd6:	0040      	lsls	r0, r0, #1
 8002bd8:	0049      	lsls	r1, r1, #1
 8002bda:	5e09      	ldrsh	r1, [r1, r0]
 8002bdc:	0049      	lsls	r1, r1, #1
 8002bde:	448e      	add	lr, r1
 8002be0:	bc03      	pop	{r0, r1}
 8002be2:	4770      	bx	lr

08002be4 <__gnu_thumb1_case_uhi>:
 8002be4:	b403      	push	{r0, r1}
 8002be6:	4671      	mov	r1, lr
 8002be8:	0849      	lsrs	r1, r1, #1
 8002bea:	0040      	lsls	r0, r0, #1
 8002bec:	0049      	lsls	r1, r1, #1
 8002bee:	5a09      	ldrh	r1, [r1, r0]
 8002bf0:	0049      	lsls	r1, r1, #1
 8002bf2:	448e      	add	lr, r1
 8002bf4:	bc03      	pop	{r0, r1}
 8002bf6:	4770      	bx	lr

08002bf8 <__udivsi3>:
 8002bf8:	2200      	movs	r2, #0
 8002bfa:	0843      	lsrs	r3, r0, #1
 8002bfc:	428b      	cmp	r3, r1
 8002bfe:	d374      	bcc.n	8002cea <__udivsi3+0xf2>
 8002c00:	0903      	lsrs	r3, r0, #4
 8002c02:	428b      	cmp	r3, r1
 8002c04:	d35f      	bcc.n	8002cc6 <__udivsi3+0xce>
 8002c06:	0a03      	lsrs	r3, r0, #8
 8002c08:	428b      	cmp	r3, r1
 8002c0a:	d344      	bcc.n	8002c96 <__udivsi3+0x9e>
 8002c0c:	0b03      	lsrs	r3, r0, #12
 8002c0e:	428b      	cmp	r3, r1
 8002c10:	d328      	bcc.n	8002c64 <__udivsi3+0x6c>
 8002c12:	0c03      	lsrs	r3, r0, #16
 8002c14:	428b      	cmp	r3, r1
 8002c16:	d30d      	bcc.n	8002c34 <__udivsi3+0x3c>
 8002c18:	22ff      	movs	r2, #255	@ 0xff
 8002c1a:	0209      	lsls	r1, r1, #8
 8002c1c:	ba12      	rev	r2, r2
 8002c1e:	0c03      	lsrs	r3, r0, #16
 8002c20:	428b      	cmp	r3, r1
 8002c22:	d302      	bcc.n	8002c2a <__udivsi3+0x32>
 8002c24:	1212      	asrs	r2, r2, #8
 8002c26:	0209      	lsls	r1, r1, #8
 8002c28:	d065      	beq.n	8002cf6 <__udivsi3+0xfe>
 8002c2a:	0b03      	lsrs	r3, r0, #12
 8002c2c:	428b      	cmp	r3, r1
 8002c2e:	d319      	bcc.n	8002c64 <__udivsi3+0x6c>
 8002c30:	e000      	b.n	8002c34 <__udivsi3+0x3c>
 8002c32:	0a09      	lsrs	r1, r1, #8
 8002c34:	0bc3      	lsrs	r3, r0, #15
 8002c36:	428b      	cmp	r3, r1
 8002c38:	d301      	bcc.n	8002c3e <__udivsi3+0x46>
 8002c3a:	03cb      	lsls	r3, r1, #15
 8002c3c:	1ac0      	subs	r0, r0, r3
 8002c3e:	4152      	adcs	r2, r2
 8002c40:	0b83      	lsrs	r3, r0, #14
 8002c42:	428b      	cmp	r3, r1
 8002c44:	d301      	bcc.n	8002c4a <__udivsi3+0x52>
 8002c46:	038b      	lsls	r3, r1, #14
 8002c48:	1ac0      	subs	r0, r0, r3
 8002c4a:	4152      	adcs	r2, r2
 8002c4c:	0b43      	lsrs	r3, r0, #13
 8002c4e:	428b      	cmp	r3, r1
 8002c50:	d301      	bcc.n	8002c56 <__udivsi3+0x5e>
 8002c52:	034b      	lsls	r3, r1, #13
 8002c54:	1ac0      	subs	r0, r0, r3
 8002c56:	4152      	adcs	r2, r2
 8002c58:	0b03      	lsrs	r3, r0, #12
 8002c5a:	428b      	cmp	r3, r1
 8002c5c:	d301      	bcc.n	8002c62 <__udivsi3+0x6a>
 8002c5e:	030b      	lsls	r3, r1, #12
 8002c60:	1ac0      	subs	r0, r0, r3
 8002c62:	4152      	adcs	r2, r2
 8002c64:	0ac3      	lsrs	r3, r0, #11
 8002c66:	428b      	cmp	r3, r1
 8002c68:	d301      	bcc.n	8002c6e <__udivsi3+0x76>
 8002c6a:	02cb      	lsls	r3, r1, #11
 8002c6c:	1ac0      	subs	r0, r0, r3
 8002c6e:	4152      	adcs	r2, r2
 8002c70:	0a83      	lsrs	r3, r0, #10
 8002c72:	428b      	cmp	r3, r1
 8002c74:	d301      	bcc.n	8002c7a <__udivsi3+0x82>
 8002c76:	028b      	lsls	r3, r1, #10
 8002c78:	1ac0      	subs	r0, r0, r3
 8002c7a:	4152      	adcs	r2, r2
 8002c7c:	0a43      	lsrs	r3, r0, #9
 8002c7e:	428b      	cmp	r3, r1
 8002c80:	d301      	bcc.n	8002c86 <__udivsi3+0x8e>
 8002c82:	024b      	lsls	r3, r1, #9
 8002c84:	1ac0      	subs	r0, r0, r3
 8002c86:	4152      	adcs	r2, r2
 8002c88:	0a03      	lsrs	r3, r0, #8
 8002c8a:	428b      	cmp	r3, r1
 8002c8c:	d301      	bcc.n	8002c92 <__udivsi3+0x9a>
 8002c8e:	020b      	lsls	r3, r1, #8
 8002c90:	1ac0      	subs	r0, r0, r3
 8002c92:	4152      	adcs	r2, r2
 8002c94:	d2cd      	bcs.n	8002c32 <__udivsi3+0x3a>
 8002c96:	09c3      	lsrs	r3, r0, #7
 8002c98:	428b      	cmp	r3, r1
 8002c9a:	d301      	bcc.n	8002ca0 <__udivsi3+0xa8>
 8002c9c:	01cb      	lsls	r3, r1, #7
 8002c9e:	1ac0      	subs	r0, r0, r3
 8002ca0:	4152      	adcs	r2, r2
 8002ca2:	0983      	lsrs	r3, r0, #6
 8002ca4:	428b      	cmp	r3, r1
 8002ca6:	d301      	bcc.n	8002cac <__udivsi3+0xb4>
 8002ca8:	018b      	lsls	r3, r1, #6
 8002caa:	1ac0      	subs	r0, r0, r3
 8002cac:	4152      	adcs	r2, r2
 8002cae:	0943      	lsrs	r3, r0, #5
 8002cb0:	428b      	cmp	r3, r1
 8002cb2:	d301      	bcc.n	8002cb8 <__udivsi3+0xc0>
 8002cb4:	014b      	lsls	r3, r1, #5
 8002cb6:	1ac0      	subs	r0, r0, r3
 8002cb8:	4152      	adcs	r2, r2
 8002cba:	0903      	lsrs	r3, r0, #4
 8002cbc:	428b      	cmp	r3, r1
 8002cbe:	d301      	bcc.n	8002cc4 <__udivsi3+0xcc>
 8002cc0:	010b      	lsls	r3, r1, #4
 8002cc2:	1ac0      	subs	r0, r0, r3
 8002cc4:	4152      	adcs	r2, r2
 8002cc6:	08c3      	lsrs	r3, r0, #3
 8002cc8:	428b      	cmp	r3, r1
 8002cca:	d301      	bcc.n	8002cd0 <__udivsi3+0xd8>
 8002ccc:	00cb      	lsls	r3, r1, #3
 8002cce:	1ac0      	subs	r0, r0, r3
 8002cd0:	4152      	adcs	r2, r2
 8002cd2:	0883      	lsrs	r3, r0, #2
 8002cd4:	428b      	cmp	r3, r1
 8002cd6:	d301      	bcc.n	8002cdc <__udivsi3+0xe4>
 8002cd8:	008b      	lsls	r3, r1, #2
 8002cda:	1ac0      	subs	r0, r0, r3
 8002cdc:	4152      	adcs	r2, r2
 8002cde:	0843      	lsrs	r3, r0, #1
 8002ce0:	428b      	cmp	r3, r1
 8002ce2:	d301      	bcc.n	8002ce8 <__udivsi3+0xf0>
 8002ce4:	004b      	lsls	r3, r1, #1
 8002ce6:	1ac0      	subs	r0, r0, r3
 8002ce8:	4152      	adcs	r2, r2
 8002cea:	1a41      	subs	r1, r0, r1
 8002cec:	d200      	bcs.n	8002cf0 <__udivsi3+0xf8>
 8002cee:	4601      	mov	r1, r0
 8002cf0:	4152      	adcs	r2, r2
 8002cf2:	4610      	mov	r0, r2
 8002cf4:	4770      	bx	lr
 8002cf6:	e7ff      	b.n	8002cf8 <__udivsi3+0x100>
 8002cf8:	b501      	push	{r0, lr}
 8002cfa:	2000      	movs	r0, #0
 8002cfc:	f000 f8f0 	bl	8002ee0 <__aeabi_idiv0>
 8002d00:	bd02      	pop	{r1, pc}
 8002d02:	46c0      	nop			@ (mov r8, r8)

08002d04 <__aeabi_uidivmod>:
 8002d04:	2900      	cmp	r1, #0
 8002d06:	d0f7      	beq.n	8002cf8 <__udivsi3+0x100>
 8002d08:	e776      	b.n	8002bf8 <__udivsi3>
 8002d0a:	4770      	bx	lr

08002d0c <__divsi3>:
 8002d0c:	4603      	mov	r3, r0
 8002d0e:	430b      	orrs	r3, r1
 8002d10:	d47f      	bmi.n	8002e12 <__divsi3+0x106>
 8002d12:	2200      	movs	r2, #0
 8002d14:	0843      	lsrs	r3, r0, #1
 8002d16:	428b      	cmp	r3, r1
 8002d18:	d374      	bcc.n	8002e04 <__divsi3+0xf8>
 8002d1a:	0903      	lsrs	r3, r0, #4
 8002d1c:	428b      	cmp	r3, r1
 8002d1e:	d35f      	bcc.n	8002de0 <__divsi3+0xd4>
 8002d20:	0a03      	lsrs	r3, r0, #8
 8002d22:	428b      	cmp	r3, r1
 8002d24:	d344      	bcc.n	8002db0 <__divsi3+0xa4>
 8002d26:	0b03      	lsrs	r3, r0, #12
 8002d28:	428b      	cmp	r3, r1
 8002d2a:	d328      	bcc.n	8002d7e <__divsi3+0x72>
 8002d2c:	0c03      	lsrs	r3, r0, #16
 8002d2e:	428b      	cmp	r3, r1
 8002d30:	d30d      	bcc.n	8002d4e <__divsi3+0x42>
 8002d32:	22ff      	movs	r2, #255	@ 0xff
 8002d34:	0209      	lsls	r1, r1, #8
 8002d36:	ba12      	rev	r2, r2
 8002d38:	0c03      	lsrs	r3, r0, #16
 8002d3a:	428b      	cmp	r3, r1
 8002d3c:	d302      	bcc.n	8002d44 <__divsi3+0x38>
 8002d3e:	1212      	asrs	r2, r2, #8
 8002d40:	0209      	lsls	r1, r1, #8
 8002d42:	d065      	beq.n	8002e10 <__divsi3+0x104>
 8002d44:	0b03      	lsrs	r3, r0, #12
 8002d46:	428b      	cmp	r3, r1
 8002d48:	d319      	bcc.n	8002d7e <__divsi3+0x72>
 8002d4a:	e000      	b.n	8002d4e <__divsi3+0x42>
 8002d4c:	0a09      	lsrs	r1, r1, #8
 8002d4e:	0bc3      	lsrs	r3, r0, #15
 8002d50:	428b      	cmp	r3, r1
 8002d52:	d301      	bcc.n	8002d58 <__divsi3+0x4c>
 8002d54:	03cb      	lsls	r3, r1, #15
 8002d56:	1ac0      	subs	r0, r0, r3
 8002d58:	4152      	adcs	r2, r2
 8002d5a:	0b83      	lsrs	r3, r0, #14
 8002d5c:	428b      	cmp	r3, r1
 8002d5e:	d301      	bcc.n	8002d64 <__divsi3+0x58>
 8002d60:	038b      	lsls	r3, r1, #14
 8002d62:	1ac0      	subs	r0, r0, r3
 8002d64:	4152      	adcs	r2, r2
 8002d66:	0b43      	lsrs	r3, r0, #13
 8002d68:	428b      	cmp	r3, r1
 8002d6a:	d301      	bcc.n	8002d70 <__divsi3+0x64>
 8002d6c:	034b      	lsls	r3, r1, #13
 8002d6e:	1ac0      	subs	r0, r0, r3
 8002d70:	4152      	adcs	r2, r2
 8002d72:	0b03      	lsrs	r3, r0, #12
 8002d74:	428b      	cmp	r3, r1
 8002d76:	d301      	bcc.n	8002d7c <__divsi3+0x70>
 8002d78:	030b      	lsls	r3, r1, #12
 8002d7a:	1ac0      	subs	r0, r0, r3
 8002d7c:	4152      	adcs	r2, r2
 8002d7e:	0ac3      	lsrs	r3, r0, #11
 8002d80:	428b      	cmp	r3, r1
 8002d82:	d301      	bcc.n	8002d88 <__divsi3+0x7c>
 8002d84:	02cb      	lsls	r3, r1, #11
 8002d86:	1ac0      	subs	r0, r0, r3
 8002d88:	4152      	adcs	r2, r2
 8002d8a:	0a83      	lsrs	r3, r0, #10
 8002d8c:	428b      	cmp	r3, r1
 8002d8e:	d301      	bcc.n	8002d94 <__divsi3+0x88>
 8002d90:	028b      	lsls	r3, r1, #10
 8002d92:	1ac0      	subs	r0, r0, r3
 8002d94:	4152      	adcs	r2, r2
 8002d96:	0a43      	lsrs	r3, r0, #9
 8002d98:	428b      	cmp	r3, r1
 8002d9a:	d301      	bcc.n	8002da0 <__divsi3+0x94>
 8002d9c:	024b      	lsls	r3, r1, #9
 8002d9e:	1ac0      	subs	r0, r0, r3
 8002da0:	4152      	adcs	r2, r2
 8002da2:	0a03      	lsrs	r3, r0, #8
 8002da4:	428b      	cmp	r3, r1
 8002da6:	d301      	bcc.n	8002dac <__divsi3+0xa0>
 8002da8:	020b      	lsls	r3, r1, #8
 8002daa:	1ac0      	subs	r0, r0, r3
 8002dac:	4152      	adcs	r2, r2
 8002dae:	d2cd      	bcs.n	8002d4c <__divsi3+0x40>
 8002db0:	09c3      	lsrs	r3, r0, #7
 8002db2:	428b      	cmp	r3, r1
 8002db4:	d301      	bcc.n	8002dba <__divsi3+0xae>
 8002db6:	01cb      	lsls	r3, r1, #7
 8002db8:	1ac0      	subs	r0, r0, r3
 8002dba:	4152      	adcs	r2, r2
 8002dbc:	0983      	lsrs	r3, r0, #6
 8002dbe:	428b      	cmp	r3, r1
 8002dc0:	d301      	bcc.n	8002dc6 <__divsi3+0xba>
 8002dc2:	018b      	lsls	r3, r1, #6
 8002dc4:	1ac0      	subs	r0, r0, r3
 8002dc6:	4152      	adcs	r2, r2
 8002dc8:	0943      	lsrs	r3, r0, #5
 8002dca:	428b      	cmp	r3, r1
 8002dcc:	d301      	bcc.n	8002dd2 <__divsi3+0xc6>
 8002dce:	014b      	lsls	r3, r1, #5
 8002dd0:	1ac0      	subs	r0, r0, r3
 8002dd2:	4152      	adcs	r2, r2
 8002dd4:	0903      	lsrs	r3, r0, #4
 8002dd6:	428b      	cmp	r3, r1
 8002dd8:	d301      	bcc.n	8002dde <__divsi3+0xd2>
 8002dda:	010b      	lsls	r3, r1, #4
 8002ddc:	1ac0      	subs	r0, r0, r3
 8002dde:	4152      	adcs	r2, r2
 8002de0:	08c3      	lsrs	r3, r0, #3
 8002de2:	428b      	cmp	r3, r1
 8002de4:	d301      	bcc.n	8002dea <__divsi3+0xde>
 8002de6:	00cb      	lsls	r3, r1, #3
 8002de8:	1ac0      	subs	r0, r0, r3
 8002dea:	4152      	adcs	r2, r2
 8002dec:	0883      	lsrs	r3, r0, #2
 8002dee:	428b      	cmp	r3, r1
 8002df0:	d301      	bcc.n	8002df6 <__divsi3+0xea>
 8002df2:	008b      	lsls	r3, r1, #2
 8002df4:	1ac0      	subs	r0, r0, r3
 8002df6:	4152      	adcs	r2, r2
 8002df8:	0843      	lsrs	r3, r0, #1
 8002dfa:	428b      	cmp	r3, r1
 8002dfc:	d301      	bcc.n	8002e02 <__divsi3+0xf6>
 8002dfe:	004b      	lsls	r3, r1, #1
 8002e00:	1ac0      	subs	r0, r0, r3
 8002e02:	4152      	adcs	r2, r2
 8002e04:	1a41      	subs	r1, r0, r1
 8002e06:	d200      	bcs.n	8002e0a <__divsi3+0xfe>
 8002e08:	4601      	mov	r1, r0
 8002e0a:	4152      	adcs	r2, r2
 8002e0c:	4610      	mov	r0, r2
 8002e0e:	4770      	bx	lr
 8002e10:	e05d      	b.n	8002ece <__divsi3+0x1c2>
 8002e12:	0fca      	lsrs	r2, r1, #31
 8002e14:	d000      	beq.n	8002e18 <__divsi3+0x10c>
 8002e16:	4249      	negs	r1, r1
 8002e18:	1003      	asrs	r3, r0, #32
 8002e1a:	d300      	bcc.n	8002e1e <__divsi3+0x112>
 8002e1c:	4240      	negs	r0, r0
 8002e1e:	4053      	eors	r3, r2
 8002e20:	2200      	movs	r2, #0
 8002e22:	469c      	mov	ip, r3
 8002e24:	0903      	lsrs	r3, r0, #4
 8002e26:	428b      	cmp	r3, r1
 8002e28:	d32d      	bcc.n	8002e86 <__divsi3+0x17a>
 8002e2a:	0a03      	lsrs	r3, r0, #8
 8002e2c:	428b      	cmp	r3, r1
 8002e2e:	d312      	bcc.n	8002e56 <__divsi3+0x14a>
 8002e30:	22fc      	movs	r2, #252	@ 0xfc
 8002e32:	0189      	lsls	r1, r1, #6
 8002e34:	ba12      	rev	r2, r2
 8002e36:	0a03      	lsrs	r3, r0, #8
 8002e38:	428b      	cmp	r3, r1
 8002e3a:	d30c      	bcc.n	8002e56 <__divsi3+0x14a>
 8002e3c:	0189      	lsls	r1, r1, #6
 8002e3e:	1192      	asrs	r2, r2, #6
 8002e40:	428b      	cmp	r3, r1
 8002e42:	d308      	bcc.n	8002e56 <__divsi3+0x14a>
 8002e44:	0189      	lsls	r1, r1, #6
 8002e46:	1192      	asrs	r2, r2, #6
 8002e48:	428b      	cmp	r3, r1
 8002e4a:	d304      	bcc.n	8002e56 <__divsi3+0x14a>
 8002e4c:	0189      	lsls	r1, r1, #6
 8002e4e:	d03a      	beq.n	8002ec6 <__divsi3+0x1ba>
 8002e50:	1192      	asrs	r2, r2, #6
 8002e52:	e000      	b.n	8002e56 <__divsi3+0x14a>
 8002e54:	0989      	lsrs	r1, r1, #6
 8002e56:	09c3      	lsrs	r3, r0, #7
 8002e58:	428b      	cmp	r3, r1
 8002e5a:	d301      	bcc.n	8002e60 <__divsi3+0x154>
 8002e5c:	01cb      	lsls	r3, r1, #7
 8002e5e:	1ac0      	subs	r0, r0, r3
 8002e60:	4152      	adcs	r2, r2
 8002e62:	0983      	lsrs	r3, r0, #6
 8002e64:	428b      	cmp	r3, r1
 8002e66:	d301      	bcc.n	8002e6c <__divsi3+0x160>
 8002e68:	018b      	lsls	r3, r1, #6
 8002e6a:	1ac0      	subs	r0, r0, r3
 8002e6c:	4152      	adcs	r2, r2
 8002e6e:	0943      	lsrs	r3, r0, #5
 8002e70:	428b      	cmp	r3, r1
 8002e72:	d301      	bcc.n	8002e78 <__divsi3+0x16c>
 8002e74:	014b      	lsls	r3, r1, #5
 8002e76:	1ac0      	subs	r0, r0, r3
 8002e78:	4152      	adcs	r2, r2
 8002e7a:	0903      	lsrs	r3, r0, #4
 8002e7c:	428b      	cmp	r3, r1
 8002e7e:	d301      	bcc.n	8002e84 <__divsi3+0x178>
 8002e80:	010b      	lsls	r3, r1, #4
 8002e82:	1ac0      	subs	r0, r0, r3
 8002e84:	4152      	adcs	r2, r2
 8002e86:	08c3      	lsrs	r3, r0, #3
 8002e88:	428b      	cmp	r3, r1
 8002e8a:	d301      	bcc.n	8002e90 <__divsi3+0x184>
 8002e8c:	00cb      	lsls	r3, r1, #3
 8002e8e:	1ac0      	subs	r0, r0, r3
 8002e90:	4152      	adcs	r2, r2
 8002e92:	0883      	lsrs	r3, r0, #2
 8002e94:	428b      	cmp	r3, r1
 8002e96:	d301      	bcc.n	8002e9c <__divsi3+0x190>
 8002e98:	008b      	lsls	r3, r1, #2
 8002e9a:	1ac0      	subs	r0, r0, r3
 8002e9c:	4152      	adcs	r2, r2
 8002e9e:	d2d9      	bcs.n	8002e54 <__divsi3+0x148>
 8002ea0:	0843      	lsrs	r3, r0, #1
 8002ea2:	428b      	cmp	r3, r1
 8002ea4:	d301      	bcc.n	8002eaa <__divsi3+0x19e>
 8002ea6:	004b      	lsls	r3, r1, #1
 8002ea8:	1ac0      	subs	r0, r0, r3
 8002eaa:	4152      	adcs	r2, r2
 8002eac:	1a41      	subs	r1, r0, r1
 8002eae:	d200      	bcs.n	8002eb2 <__divsi3+0x1a6>
 8002eb0:	4601      	mov	r1, r0
 8002eb2:	4663      	mov	r3, ip
 8002eb4:	4152      	adcs	r2, r2
 8002eb6:	105b      	asrs	r3, r3, #1
 8002eb8:	4610      	mov	r0, r2
 8002eba:	d301      	bcc.n	8002ec0 <__divsi3+0x1b4>
 8002ebc:	4240      	negs	r0, r0
 8002ebe:	2b00      	cmp	r3, #0
 8002ec0:	d500      	bpl.n	8002ec4 <__divsi3+0x1b8>
 8002ec2:	4249      	negs	r1, r1
 8002ec4:	4770      	bx	lr
 8002ec6:	4663      	mov	r3, ip
 8002ec8:	105b      	asrs	r3, r3, #1
 8002eca:	d300      	bcc.n	8002ece <__divsi3+0x1c2>
 8002ecc:	4240      	negs	r0, r0
 8002ece:	b501      	push	{r0, lr}
 8002ed0:	2000      	movs	r0, #0
 8002ed2:	f000 f805 	bl	8002ee0 <__aeabi_idiv0>
 8002ed6:	bd02      	pop	{r1, pc}

08002ed8 <__aeabi_idivmod>:
 8002ed8:	2900      	cmp	r1, #0
 8002eda:	d0f8      	beq.n	8002ece <__divsi3+0x1c2>
 8002edc:	e716      	b.n	8002d0c <__divsi3>
 8002ede:	4770      	bx	lr

08002ee0 <__aeabi_idiv0>:
 8002ee0:	4770      	bx	lr
 8002ee2:	46c0      	nop			@ (mov r8, r8)

08002ee4 <__aeabi_cdrcmple>:
 8002ee4:	4684      	mov	ip, r0
 8002ee6:	0010      	movs	r0, r2
 8002ee8:	4662      	mov	r2, ip
 8002eea:	468c      	mov	ip, r1
 8002eec:	0019      	movs	r1, r3
 8002eee:	4663      	mov	r3, ip
 8002ef0:	e000      	b.n	8002ef4 <__aeabi_cdcmpeq>
 8002ef2:	46c0      	nop			@ (mov r8, r8)

08002ef4 <__aeabi_cdcmpeq>:
 8002ef4:	b51f      	push	{r0, r1, r2, r3, r4, lr}
 8002ef6:	f001 f873 	bl	8003fe0 <__ledf2>
 8002efa:	2800      	cmp	r0, #0
 8002efc:	d401      	bmi.n	8002f02 <__aeabi_cdcmpeq+0xe>
 8002efe:	2100      	movs	r1, #0
 8002f00:	42c8      	cmn	r0, r1
 8002f02:	bd1f      	pop	{r0, r1, r2, r3, r4, pc}

08002f04 <__aeabi_dcmpeq>:
 8002f04:	b510      	push	{r4, lr}
 8002f06:	f000 ffb3 	bl	8003e70 <__eqdf2>
 8002f0a:	4240      	negs	r0, r0
 8002f0c:	3001      	adds	r0, #1
 8002f0e:	bd10      	pop	{r4, pc}

08002f10 <__aeabi_dcmplt>:
 8002f10:	b510      	push	{r4, lr}
 8002f12:	f001 f865 	bl	8003fe0 <__ledf2>
 8002f16:	2800      	cmp	r0, #0
 8002f18:	db01      	blt.n	8002f1e <__aeabi_dcmplt+0xe>
 8002f1a:	2000      	movs	r0, #0
 8002f1c:	bd10      	pop	{r4, pc}
 8002f1e:	2001      	movs	r0, #1
 8002f20:	bd10      	pop	{r4, pc}
 8002f22:	46c0      	nop			@ (mov r8, r8)

08002f24 <__aeabi_dcmple>:
 8002f24:	b510      	push	{r4, lr}
 8002f26:	f001 f85b 	bl	8003fe0 <__ledf2>
 8002f2a:	2800      	cmp	r0, #0
 8002f2c:	dd01      	ble.n	8002f32 <__aeabi_dcmple+0xe>
 8002f2e:	2000      	movs	r0, #0
 8002f30:	bd10      	pop	{r4, pc}
 8002f32:	2001      	movs	r0, #1
 8002f34:	bd10      	pop	{r4, pc}
 8002f36:	46c0      	nop			@ (mov r8, r8)

08002f38 <__aeabi_dcmpgt>:
 8002f38:	b510      	push	{r4, lr}
 8002f3a:	f000 ffdd 	bl	8003ef8 <__gedf2>
 8002f3e:	2800      	cmp	r0, #0
 8002f40:	dc01      	bgt.n	8002f46 <__aeabi_dcmpgt+0xe>
 8002f42:	2000      	movs	r0, #0
 8002f44:	bd10      	pop	{r4, pc}
 8002f46:	2001      	movs	r0, #1
 8002f48:	bd10      	pop	{r4, pc}
 8002f4a:	46c0      	nop			@ (mov r8, r8)

08002f4c <__aeabi_dcmpge>:
 8002f4c:	b510      	push	{r4, lr}
 8002f4e:	f000 ffd3 	bl	8003ef8 <__gedf2>
 8002f52:	2800      	cmp	r0, #0
 8002f54:	da01      	bge.n	8002f5a <__aeabi_dcmpge+0xe>
 8002f56:	2000      	movs	r0, #0
 8002f58:	bd10      	pop	{r4, pc}
 8002f5a:	2001      	movs	r0, #1
 8002f5c:	bd10      	pop	{r4, pc}
 8002f5e:	46c0      	nop			@ (mov r8, r8)

08002f60 <__aeabi_uldivmod>:
 8002f60:	2b00      	cmp	r3, #0
 8002f62:	d111      	bne.n	8002f88 <__aeabi_uldivmod+0x28>
 8002f64:	2a00      	cmp	r2, #0
 8002f66:	d10f      	bne.n	8002f88 <__aeabi_uldivmod+0x28>
 8002f68:	2900      	cmp	r1, #0
 8002f6a:	d100      	bne.n	8002f6e <__aeabi_uldivmod+0xe>
 8002f6c:	2800      	cmp	r0, #0
 8002f6e:	d002      	beq.n	8002f76 <__aeabi_uldivmod+0x16>
 8002f70:	2100      	movs	r1, #0
 8002f72:	43c9      	mvns	r1, r1
 8002f74:	0008      	movs	r0, r1
 8002f76:	b407      	push	{r0, r1, r2}
 8002f78:	4802      	ldr	r0, [pc, #8]	@ (8002f84 <__aeabi_uldivmod+0x24>)
 8002f7a:	a102      	add	r1, pc, #8	@ (adr r1, 8002f84 <__aeabi_uldivmod+0x24>)
 8002f7c:	1840      	adds	r0, r0, r1
 8002f7e:	9002      	str	r0, [sp, #8]
 8002f80:	bd03      	pop	{r0, r1, pc}
 8002f82:	46c0      	nop			@ (mov r8, r8)
 8002f84:	ffffff5d 			@ <UNDEFINED> instruction: 0xffffff5d
 8002f88:	b403      	push	{r0, r1}
 8002f8a:	4668      	mov	r0, sp
 8002f8c:	b501      	push	{r0, lr}
 8002f8e:	9802      	ldr	r0, [sp, #8]
 8002f90:	f000 f824 	bl	8002fdc <__udivmoddi4>
 8002f94:	9b01      	ldr	r3, [sp, #4]
 8002f96:	469e      	mov	lr, r3
 8002f98:	b002      	add	sp, #8
 8002f9a:	bc0c      	pop	{r2, r3}
 8002f9c:	4770      	bx	lr
 8002f9e:	46c0      	nop			@ (mov r8, r8)

08002fa0 <__aeabi_d2uiz>:
 8002fa0:	b570      	push	{r4, r5, r6, lr}
 8002fa2:	2200      	movs	r2, #0
 8002fa4:	4b0c      	ldr	r3, [pc, #48]	@ (8002fd8 <__aeabi_d2uiz+0x38>)
 8002fa6:	0004      	movs	r4, r0
 8002fa8:	000d      	movs	r5, r1
 8002faa:	f7ff ffcf 	bl	8002f4c <__aeabi_dcmpge>
 8002fae:	2800      	cmp	r0, #0
 8002fb0:	d104      	bne.n	8002fbc <__aeabi_d2uiz+0x1c>
 8002fb2:	0020      	movs	r0, r4
 8002fb4:	0029      	movs	r1, r5
 8002fb6:	f001 fee9 	bl	8004d8c <__aeabi_d2iz>
 8002fba:	bd70      	pop	{r4, r5, r6, pc}
 8002fbc:	4b06      	ldr	r3, [pc, #24]	@ (8002fd8 <__aeabi_d2uiz+0x38>)
 8002fbe:	2200      	movs	r2, #0
 8002fc0:	0020      	movs	r0, r4
 8002fc2:	0029      	movs	r1, r5
 8002fc4:	f001 fb46 	bl	8004654 <__aeabi_dsub>
 8002fc8:	f001 fee0 	bl	8004d8c <__aeabi_d2iz>
 8002fcc:	2380      	movs	r3, #128	@ 0x80
 8002fce:	061b      	lsls	r3, r3, #24
 8002fd0:	469c      	mov	ip, r3
 8002fd2:	4460      	add	r0, ip
 8002fd4:	e7f1      	b.n	8002fba <__aeabi_d2uiz+0x1a>
 8002fd6:	46c0      	nop			@ (mov r8, r8)
 8002fd8:	41e00000 	mvnmi	r0, r0

08002fdc <__udivmoddi4>:
 8002fdc:	b5f0      	push	{r4, r5, r6, r7, lr}
 8002fde:	4657      	mov	r7, sl
 8002fe0:	464e      	mov	r6, r9
 8002fe2:	4645      	mov	r5, r8
 8002fe4:	46de      	mov	lr, fp
 8002fe6:	b5e0      	push	{r5, r6, r7, lr}
 8002fe8:	0004      	movs	r4, r0
 8002fea:	000d      	movs	r5, r1
 8002fec:	4692      	mov	sl, r2
 8002fee:	4699      	mov	r9, r3
 8002ff0:	b083      	sub	sp, #12
 8002ff2:	428b      	cmp	r3, r1
 8002ff4:	d830      	bhi.n	8003058 <__udivmoddi4+0x7c>
 8002ff6:	d02d      	beq.n	8003054 <__udivmoddi4+0x78>
 8002ff8:	4649      	mov	r1, r9
 8002ffa:	4650      	mov	r0, sl
 8002ffc:	f001 ff72 	bl	8004ee4 <__clzdi2>
 8003000:	0029      	movs	r1, r5
 8003002:	0006      	movs	r6, r0
 8003004:	0020      	movs	r0, r4
 8003006:	f001 ff6d 	bl	8004ee4 <__clzdi2>
 800300a:	1a33      	subs	r3, r6, r0
 800300c:	4698      	mov	r8, r3
 800300e:	3b20      	subs	r3, #32
 8003010:	d434      	bmi.n	800307c <__udivmoddi4+0xa0>
 8003012:	469b      	mov	fp, r3
 8003014:	4653      	mov	r3, sl
 8003016:	465a      	mov	r2, fp
 8003018:	4093      	lsls	r3, r2
 800301a:	4642      	mov	r2, r8
 800301c:	001f      	movs	r7, r3
 800301e:	4653      	mov	r3, sl
 8003020:	4093      	lsls	r3, r2
 8003022:	001e      	movs	r6, r3
 8003024:	42af      	cmp	r7, r5
 8003026:	d83b      	bhi.n	80030a0 <__udivmoddi4+0xc4>
 8003028:	42af      	cmp	r7, r5
 800302a:	d100      	bne.n	800302e <__udivmoddi4+0x52>
 800302c:	e079      	b.n	8003122 <__udivmoddi4+0x146>
 800302e:	465b      	mov	r3, fp
 8003030:	1ba4      	subs	r4, r4, r6
 8003032:	41bd      	sbcs	r5, r7
 8003034:	2b00      	cmp	r3, #0
 8003036:	da00      	bge.n	800303a <__udivmoddi4+0x5e>
 8003038:	e076      	b.n	8003128 <__udivmoddi4+0x14c>
 800303a:	2200      	movs	r2, #0
 800303c:	2300      	movs	r3, #0
 800303e:	9200      	str	r2, [sp, #0]
 8003040:	9301      	str	r3, [sp, #4]
 8003042:	2301      	movs	r3, #1
 8003044:	465a      	mov	r2, fp
 8003046:	4093      	lsls	r3, r2
 8003048:	9301      	str	r3, [sp, #4]
 800304a:	2301      	movs	r3, #1
 800304c:	4642      	mov	r2, r8
 800304e:	4093      	lsls	r3, r2
 8003050:	9300      	str	r3, [sp, #0]
 8003052:	e029      	b.n	80030a8 <__udivmoddi4+0xcc>
 8003054:	4282      	cmp	r2, r0
 8003056:	d9cf      	bls.n	8002ff8 <__udivmoddi4+0x1c>
 8003058:	2200      	movs	r2, #0
 800305a:	2300      	movs	r3, #0
 800305c:	9200      	str	r2, [sp, #0]
 800305e:	9301      	str	r3, [sp, #4]
 8003060:	9b0c      	ldr	r3, [sp, #48]	@ 0x30
 8003062:	2b00      	cmp	r3, #0
 8003064:	d001      	beq.n	800306a <__udivmoddi4+0x8e>
 8003066:	601c      	str	r4, [r3, #0]
 8003068:	605d      	str	r5, [r3, #4]
 800306a:	9800      	ldr	r0, [sp, #0]
 800306c:	9901      	ldr	r1, [sp, #4]
 800306e:	b003      	add	sp, #12
 8003070:	bcf0      	pop	{r4, r5, r6, r7}
 8003072:	46bb      	mov	fp, r7
 8003074:	46b2      	mov	sl, r6
 8003076:	46a9      	mov	r9, r5
 8003078:	46a0      	mov	r8, r4
 800307a:	bdf0      	pop	{r4, r5, r6, r7, pc}
 800307c:	4642      	mov	r2, r8
 800307e:	469b      	mov	fp, r3
 8003080:	2320      	movs	r3, #32
 8003082:	1a9b      	subs	r3, r3, r2
 8003084:	4652      	mov	r2, sl
 8003086:	40da      	lsrs	r2, r3
 8003088:	4641      	mov	r1, r8
 800308a:	0013      	movs	r3, r2
 800308c:	464a      	mov	r2, r9
 800308e:	408a      	lsls	r2, r1
 8003090:	0017      	movs	r7, r2
 8003092:	4642      	mov	r2, r8
 8003094:	431f      	orrs	r7, r3
 8003096:	4653      	mov	r3, sl
 8003098:	4093      	lsls	r3, r2
 800309a:	001e      	movs	r6, r3
 800309c:	42af      	cmp	r7, r5
 800309e:	d9c3      	bls.n	8003028 <__udivmoddi4+0x4c>
 80030a0:	2200      	movs	r2, #0
 80030a2:	2300      	movs	r3, #0
 80030a4:	9200      	str	r2, [sp, #0]
 80030a6:	9301      	str	r3, [sp, #4]
 80030a8:	4643      	mov	r3, r8
 80030aa:	2b00      	cmp	r3, #0
 80030ac:	d0d8      	beq.n	8003060 <__udivmoddi4+0x84>
 80030ae:	07fb      	lsls	r3, r7, #31
 80030b0:	0872      	lsrs	r2, r6, #1
 80030b2:	431a      	orrs	r2, r3
 80030b4:	4646      	mov	r6, r8
 80030b6:	087b      	lsrs	r3, r7, #1
 80030b8:	e00e      	b.n	80030d8 <__udivmoddi4+0xfc>
 80030ba:	42ab      	cmp	r3, r5
 80030bc:	d101      	bne.n	80030c2 <__udivmoddi4+0xe6>
 80030be:	42a2      	cmp	r2, r4
 80030c0:	d80c      	bhi.n	80030dc <__udivmoddi4+0x100>
 80030c2:	1aa4      	subs	r4, r4, r2
 80030c4:	419d      	sbcs	r5, r3
 80030c6:	2001      	movs	r0, #1
 80030c8:	1924      	adds	r4, r4, r4
 80030ca:	416d      	adcs	r5, r5
 80030cc:	2100      	movs	r1, #0
 80030ce:	3e01      	subs	r6, #1
 80030d0:	1824      	adds	r4, r4, r0
 80030d2:	414d      	adcs	r5, r1
 80030d4:	2e00      	cmp	r6, #0
 80030d6:	d006      	beq.n	80030e6 <__udivmoddi4+0x10a>
 80030d8:	42ab      	cmp	r3, r5
 80030da:	d9ee      	bls.n	80030ba <__udivmoddi4+0xde>
 80030dc:	3e01      	subs	r6, #1
 80030de:	1924      	adds	r4, r4, r4
 80030e0:	416d      	adcs	r5, r5
 80030e2:	2e00      	cmp	r6, #0
 80030e4:	d1f8      	bne.n	80030d8 <__udivmoddi4+0xfc>
 80030e6:	9800      	ldr	r0, [sp, #0]
 80030e8:	9901      	ldr	r1, [sp, #4]
 80030ea:	465b      	mov	r3, fp
 80030ec:	1900      	adds	r0, r0, r4
 80030ee:	4169      	adcs	r1, r5
 80030f0:	2b00      	cmp	r3, #0
 80030f2:	db24      	blt.n	800313e <__udivmoddi4+0x162>
 80030f4:	002b      	movs	r3, r5
 80030f6:	465a      	mov	r2, fp
 80030f8:	4644      	mov	r4, r8
 80030fa:	40d3      	lsrs	r3, r2
 80030fc:	002a      	movs	r2, r5
 80030fe:	40e2      	lsrs	r2, r4
 8003100:	001c      	movs	r4, r3
 8003102:	465b      	mov	r3, fp
 8003104:	0015      	movs	r5, r2
 8003106:	2b00      	cmp	r3, #0
 8003108:	db2a      	blt.n	8003160 <__udivmoddi4+0x184>
 800310a:	0026      	movs	r6, r4
 800310c:	409e      	lsls	r6, r3
 800310e:	0033      	movs	r3, r6
 8003110:	0026      	movs	r6, r4
 8003112:	4647      	mov	r7, r8
 8003114:	40be      	lsls	r6, r7
 8003116:	0032      	movs	r2, r6
 8003118:	1a80      	subs	r0, r0, r2
 800311a:	4199      	sbcs	r1, r3
 800311c:	9000      	str	r0, [sp, #0]
 800311e:	9101      	str	r1, [sp, #4]
 8003120:	e79e      	b.n	8003060 <__udivmoddi4+0x84>
 8003122:	42a3      	cmp	r3, r4
 8003124:	d8bc      	bhi.n	80030a0 <__udivmoddi4+0xc4>
 8003126:	e782      	b.n	800302e <__udivmoddi4+0x52>
 8003128:	4642      	mov	r2, r8
 800312a:	2320      	movs	r3, #32
 800312c:	2100      	movs	r1, #0
 800312e:	1a9b      	subs	r3, r3, r2
 8003130:	2200      	movs	r2, #0
 8003132:	9100      	str	r1, [sp, #0]
 8003134:	9201      	str	r2, [sp, #4]
 8003136:	2201      	movs	r2, #1
 8003138:	40da      	lsrs	r2, r3
 800313a:	9201      	str	r2, [sp, #4]
 800313c:	e785      	b.n	800304a <__udivmoddi4+0x6e>
 800313e:	4642      	mov	r2, r8
 8003140:	2320      	movs	r3, #32
 8003142:	1a9b      	subs	r3, r3, r2
 8003144:	002a      	movs	r2, r5
 8003146:	4646      	mov	r6, r8
 8003148:	409a      	lsls	r2, r3
 800314a:	0023      	movs	r3, r4
 800314c:	40f3      	lsrs	r3, r6
 800314e:	4644      	mov	r4, r8
 8003150:	4313      	orrs	r3, r2
 8003152:	002a      	movs	r2, r5
 8003154:	40e2      	lsrs	r2, r4
 8003156:	001c      	movs	r4, r3
 8003158:	465b      	mov	r3, fp
 800315a:	0015      	movs	r5, r2
 800315c:	2b00      	cmp	r3, #0
 800315e:	dad4      	bge.n	800310a <__udivmoddi4+0x12e>
 8003160:	4642      	mov	r2, r8
 8003162:	002f      	movs	r7, r5
 8003164:	2320      	movs	r3, #32
 8003166:	0026      	movs	r6, r4
 8003168:	4097      	lsls	r7, r2
 800316a:	1a9b      	subs	r3, r3, r2
 800316c:	40de      	lsrs	r6, r3
 800316e:	003b      	movs	r3, r7
 8003170:	4333      	orrs	r3, r6
 8003172:	e7cd      	b.n	8003110 <__udivmoddi4+0x134>

08003174 <__aeabi_dadd>:
 8003174:	b5f0      	push	{r4, r5, r6, r7, lr}
 8003176:	4657      	mov	r7, sl
 8003178:	464e      	mov	r6, r9
 800317a:	4645      	mov	r5, r8
 800317c:	46de      	mov	lr, fp
 800317e:	b5e0      	push	{r5, r6, r7, lr}
 8003180:	b083      	sub	sp, #12
 8003182:	9000      	str	r0, [sp, #0]
 8003184:	9101      	str	r1, [sp, #4]
 8003186:	030c      	lsls	r4, r1, #12
 8003188:	004f      	lsls	r7, r1, #1
 800318a:	0fce      	lsrs	r6, r1, #31
 800318c:	0a61      	lsrs	r1, r4, #9
 800318e:	9c00      	ldr	r4, [sp, #0]
 8003190:	031d      	lsls	r5, r3, #12
 8003192:	0f64      	lsrs	r4, r4, #29
 8003194:	430c      	orrs	r4, r1
 8003196:	9900      	ldr	r1, [sp, #0]
 8003198:	9200      	str	r2, [sp, #0]
 800319a:	9301      	str	r3, [sp, #4]
 800319c:	00c8      	lsls	r0, r1, #3
 800319e:	0059      	lsls	r1, r3, #1
 80031a0:	0d4b      	lsrs	r3, r1, #21
 80031a2:	4699      	mov	r9, r3
 80031a4:	9a00      	ldr	r2, [sp, #0]
 80031a6:	9b01      	ldr	r3, [sp, #4]
 80031a8:	0a6d      	lsrs	r5, r5, #9
 80031aa:	0fd9      	lsrs	r1, r3, #31
 80031ac:	0f53      	lsrs	r3, r2, #29
 80031ae:	432b      	orrs	r3, r5
 80031b0:	469a      	mov	sl, r3
 80031b2:	9b00      	ldr	r3, [sp, #0]
 80031b4:	0d7f      	lsrs	r7, r7, #21
 80031b6:	00da      	lsls	r2, r3, #3
 80031b8:	4694      	mov	ip, r2
 80031ba:	464a      	mov	r2, r9
 80031bc:	46b0      	mov	r8, r6
 80031be:	1aba      	subs	r2, r7, r2
 80031c0:	428e      	cmp	r6, r1
 80031c2:	d100      	bne.n	80031c6 <__aeabi_dadd+0x52>
 80031c4:	e0b0      	b.n	8003328 <__aeabi_dadd+0x1b4>
 80031c6:	2a00      	cmp	r2, #0
 80031c8:	dc00      	bgt.n	80031cc <__aeabi_dadd+0x58>
 80031ca:	e078      	b.n	80032be <__aeabi_dadd+0x14a>
 80031cc:	4649      	mov	r1, r9
 80031ce:	2900      	cmp	r1, #0
 80031d0:	d100      	bne.n	80031d4 <__aeabi_dadd+0x60>
 80031d2:	e0e9      	b.n	80033a8 <__aeabi_dadd+0x234>
 80031d4:	49c9      	ldr	r1, [pc, #804]	@ (80034fc <__aeabi_dadd+0x388>)
 80031d6:	428f      	cmp	r7, r1
 80031d8:	d100      	bne.n	80031dc <__aeabi_dadd+0x68>
 80031da:	e195      	b.n	8003508 <__aeabi_dadd+0x394>
 80031dc:	2501      	movs	r5, #1
 80031de:	2a38      	cmp	r2, #56	@ 0x38
 80031e0:	dc16      	bgt.n	8003210 <__aeabi_dadd+0x9c>
 80031e2:	2180      	movs	r1, #128	@ 0x80
 80031e4:	4653      	mov	r3, sl
 80031e6:	0409      	lsls	r1, r1, #16
 80031e8:	430b      	orrs	r3, r1
 80031ea:	469a      	mov	sl, r3
 80031ec:	2a1f      	cmp	r2, #31
 80031ee:	dd00      	ble.n	80031f2 <__aeabi_dadd+0x7e>
 80031f0:	e1e7      	b.n	80035c2 <__aeabi_dadd+0x44e>
 80031f2:	2120      	movs	r1, #32
 80031f4:	4655      	mov	r5, sl
 80031f6:	1a8b      	subs	r3, r1, r2
 80031f8:	4661      	mov	r1, ip
 80031fa:	409d      	lsls	r5, r3
 80031fc:	40d1      	lsrs	r1, r2
 80031fe:	430d      	orrs	r5, r1
 8003200:	4661      	mov	r1, ip
 8003202:	4099      	lsls	r1, r3
 8003204:	1e4b      	subs	r3, r1, #1
 8003206:	4199      	sbcs	r1, r3
 8003208:	4653      	mov	r3, sl
 800320a:	40d3      	lsrs	r3, r2
 800320c:	430d      	orrs	r5, r1
 800320e:	1ae4      	subs	r4, r4, r3
 8003210:	1b45      	subs	r5, r0, r5
 8003212:	42a8      	cmp	r0, r5
 8003214:	4180      	sbcs	r0, r0
 8003216:	4240      	negs	r0, r0
 8003218:	1a24      	subs	r4, r4, r0
 800321a:	0223      	lsls	r3, r4, #8
 800321c:	d400      	bmi.n	8003220 <__aeabi_dadd+0xac>
 800321e:	e10f      	b.n	8003440 <__aeabi_dadd+0x2cc>
 8003220:	0264      	lsls	r4, r4, #9
 8003222:	0a64      	lsrs	r4, r4, #9
 8003224:	2c00      	cmp	r4, #0
 8003226:	d100      	bne.n	800322a <__aeabi_dadd+0xb6>
 8003228:	e139      	b.n	800349e <__aeabi_dadd+0x32a>
 800322a:	0020      	movs	r0, r4
 800322c:	f001 fe3c 	bl	8004ea8 <__clzsi2>
 8003230:	0003      	movs	r3, r0
 8003232:	3b08      	subs	r3, #8
 8003234:	2120      	movs	r1, #32
 8003236:	0028      	movs	r0, r5
 8003238:	1aca      	subs	r2, r1, r3
 800323a:	40d0      	lsrs	r0, r2
 800323c:	409c      	lsls	r4, r3
 800323e:	0002      	movs	r2, r0
 8003240:	409d      	lsls	r5, r3
 8003242:	4322      	orrs	r2, r4
 8003244:	429f      	cmp	r7, r3
 8003246:	dd00      	ble.n	800324a <__aeabi_dadd+0xd6>
 8003248:	e173      	b.n	8003532 <__aeabi_dadd+0x3be>
 800324a:	1bd8      	subs	r0, r3, r7
 800324c:	3001      	adds	r0, #1
 800324e:	1a09      	subs	r1, r1, r0
 8003250:	002c      	movs	r4, r5
 8003252:	408d      	lsls	r5, r1
 8003254:	40c4      	lsrs	r4, r0
 8003256:	1e6b      	subs	r3, r5, #1
 8003258:	419d      	sbcs	r5, r3
 800325a:	0013      	movs	r3, r2
 800325c:	40c2      	lsrs	r2, r0
 800325e:	408b      	lsls	r3, r1
 8003260:	4325      	orrs	r5, r4
 8003262:	2700      	movs	r7, #0
 8003264:	0014      	movs	r4, r2
 8003266:	431d      	orrs	r5, r3
 8003268:	076b      	lsls	r3, r5, #29
 800326a:	d009      	beq.n	8003280 <__aeabi_dadd+0x10c>
 800326c:	230f      	movs	r3, #15
 800326e:	402b      	ands	r3, r5
 8003270:	2b04      	cmp	r3, #4
 8003272:	d005      	beq.n	8003280 <__aeabi_dadd+0x10c>
 8003274:	1d2b      	adds	r3, r5, #4
 8003276:	42ab      	cmp	r3, r5
 8003278:	41ad      	sbcs	r5, r5
 800327a:	426d      	negs	r5, r5
 800327c:	1964      	adds	r4, r4, r5
 800327e:	001d      	movs	r5, r3
 8003280:	0223      	lsls	r3, r4, #8
 8003282:	d400      	bmi.n	8003286 <__aeabi_dadd+0x112>
 8003284:	e12d      	b.n	80034e2 <__aeabi_dadd+0x36e>
 8003286:	4a9d      	ldr	r2, [pc, #628]	@ (80034fc <__aeabi_dadd+0x388>)
 8003288:	3701      	adds	r7, #1
 800328a:	4297      	cmp	r7, r2
 800328c:	d100      	bne.n	8003290 <__aeabi_dadd+0x11c>
 800328e:	e0d3      	b.n	8003438 <__aeabi_dadd+0x2c4>
 8003290:	4646      	mov	r6, r8
 8003292:	499b      	ldr	r1, [pc, #620]	@ (8003500 <__aeabi_dadd+0x38c>)
 8003294:	08ed      	lsrs	r5, r5, #3
 8003296:	4021      	ands	r1, r4
 8003298:	074a      	lsls	r2, r1, #29
 800329a:	432a      	orrs	r2, r5
 800329c:	057c      	lsls	r4, r7, #21
 800329e:	024d      	lsls	r5, r1, #9
 80032a0:	0b2d      	lsrs	r5, r5, #12
 80032a2:	0d64      	lsrs	r4, r4, #21
 80032a4:	0524      	lsls	r4, r4, #20
 80032a6:	432c      	orrs	r4, r5
 80032a8:	07f6      	lsls	r6, r6, #31
 80032aa:	4334      	orrs	r4, r6
 80032ac:	0010      	movs	r0, r2
 80032ae:	0021      	movs	r1, r4
 80032b0:	b003      	add	sp, #12
 80032b2:	bcf0      	pop	{r4, r5, r6, r7}
 80032b4:	46bb      	mov	fp, r7
 80032b6:	46b2      	mov	sl, r6
 80032b8:	46a9      	mov	r9, r5
 80032ba:	46a0      	mov	r8, r4
 80032bc:	bdf0      	pop	{r4, r5, r6, r7, pc}
 80032be:	2a00      	cmp	r2, #0
 80032c0:	d100      	bne.n	80032c4 <__aeabi_dadd+0x150>
 80032c2:	e084      	b.n	80033ce <__aeabi_dadd+0x25a>
 80032c4:	464a      	mov	r2, r9
 80032c6:	1bd2      	subs	r2, r2, r7
 80032c8:	2f00      	cmp	r7, #0
 80032ca:	d000      	beq.n	80032ce <__aeabi_dadd+0x15a>
 80032cc:	e16d      	b.n	80035aa <__aeabi_dadd+0x436>
 80032ce:	0025      	movs	r5, r4
 80032d0:	4305      	orrs	r5, r0
 80032d2:	d100      	bne.n	80032d6 <__aeabi_dadd+0x162>
 80032d4:	e127      	b.n	8003526 <__aeabi_dadd+0x3b2>
 80032d6:	1e56      	subs	r6, r2, #1
 80032d8:	2a01      	cmp	r2, #1
 80032da:	d100      	bne.n	80032de <__aeabi_dadd+0x16a>
 80032dc:	e23b      	b.n	8003756 <__aeabi_dadd+0x5e2>
 80032de:	4d87      	ldr	r5, [pc, #540]	@ (80034fc <__aeabi_dadd+0x388>)
 80032e0:	42aa      	cmp	r2, r5
 80032e2:	d100      	bne.n	80032e6 <__aeabi_dadd+0x172>
 80032e4:	e26a      	b.n	80037bc <__aeabi_dadd+0x648>
 80032e6:	2501      	movs	r5, #1
 80032e8:	2e38      	cmp	r6, #56	@ 0x38
 80032ea:	dc12      	bgt.n	8003312 <__aeabi_dadd+0x19e>
 80032ec:	0032      	movs	r2, r6
 80032ee:	2a1f      	cmp	r2, #31
 80032f0:	dd00      	ble.n	80032f4 <__aeabi_dadd+0x180>
 80032f2:	e1f8      	b.n	80036e6 <__aeabi_dadd+0x572>
 80032f4:	2620      	movs	r6, #32
 80032f6:	0025      	movs	r5, r4
 80032f8:	1ab6      	subs	r6, r6, r2
 80032fa:	0007      	movs	r7, r0
 80032fc:	4653      	mov	r3, sl
 80032fe:	40b0      	lsls	r0, r6
 8003300:	40d4      	lsrs	r4, r2
 8003302:	40b5      	lsls	r5, r6
 8003304:	40d7      	lsrs	r7, r2
 8003306:	1e46      	subs	r6, r0, #1
 8003308:	41b0      	sbcs	r0, r6
 800330a:	1b1b      	subs	r3, r3, r4
 800330c:	469a      	mov	sl, r3
 800330e:	433d      	orrs	r5, r7
 8003310:	4305      	orrs	r5, r0
 8003312:	4662      	mov	r2, ip
 8003314:	1b55      	subs	r5, r2, r5
 8003316:	45ac      	cmp	ip, r5
 8003318:	4192      	sbcs	r2, r2
 800331a:	4653      	mov	r3, sl
 800331c:	4252      	negs	r2, r2
 800331e:	000e      	movs	r6, r1
 8003320:	464f      	mov	r7, r9
 8003322:	4688      	mov	r8, r1
 8003324:	1a9c      	subs	r4, r3, r2
 8003326:	e778      	b.n	800321a <__aeabi_dadd+0xa6>
 8003328:	2a00      	cmp	r2, #0
 800332a:	dc00      	bgt.n	800332e <__aeabi_dadd+0x1ba>
 800332c:	e08e      	b.n	800344c <__aeabi_dadd+0x2d8>
 800332e:	4649      	mov	r1, r9
 8003330:	2900      	cmp	r1, #0
 8003332:	d175      	bne.n	8003420 <__aeabi_dadd+0x2ac>
 8003334:	4661      	mov	r1, ip
 8003336:	4653      	mov	r3, sl
 8003338:	4319      	orrs	r1, r3
 800333a:	d100      	bne.n	800333e <__aeabi_dadd+0x1ca>
 800333c:	e0f6      	b.n	800352c <__aeabi_dadd+0x3b8>
 800333e:	1e51      	subs	r1, r2, #1
 8003340:	2a01      	cmp	r2, #1
 8003342:	d100      	bne.n	8003346 <__aeabi_dadd+0x1d2>
 8003344:	e191      	b.n	800366a <__aeabi_dadd+0x4f6>
 8003346:	4d6d      	ldr	r5, [pc, #436]	@ (80034fc <__aeabi_dadd+0x388>)
 8003348:	42aa      	cmp	r2, r5
